(lp0
S'austin'
p1
aS'san-antonio'
p2
aS'houston'
p3
aS'dallas'
p4
aS'fort-worth'
p5
aS'galveston'
p6
aS'corpus-christi'
p7
aS'arlington'
p8
aS'irving'
p9
aS'fredericksburg'
p10
aS'amarillo'
p11
aS'tyler'
p12
aS'lubbock'
p13
aS'san-angelo'
p14
a.