(lp0
Vhttp://www.traveltex.com/activities/
p1
aVhttp://www.traveltex.com/activities/-the-westin-la-cantera-hill-country-resort-palmer-course/
p2
aVhttp://www.traveltex.com/activities/-the-westin-la-cantera-hill-country-resort-resort-course/
p3
aVhttp://www.traveltex.com/activities/old-rip-the-horned-toad/
p4
aVhttp://www.traveltex.com/activities/true-women-tour/
p5
aVhttp://www.traveltex.com/activities/12th-armored-division-memorial-museum/
p6
aVhttp://www.traveltex.com/activities/1890-jail-museumheritage-center/
p7
aVhttp://www.traveltex.com/activities/1940-air-terminal-museum/
p8
aVhttp://www.traveltex.com/activities/a1-golf-center/
p9
aVhttp://www.traveltex.com/activities/aw-perry-homestead-museum/
p10
aVhttp://www.traveltex.com/activities/abilene-country-club-club-course/
p11
aVhttp://www.traveltex.com/activities/abilene-state-park-2/
p12
aVhttp://www.traveltex.com/activities/abraham-family-art-gallery/
p13
aVhttp://www.traveltex.com/activities/ace-of-clubs-house/
p14
aVhttp://www.traveltex.com/activities/acton-state-historic-site/
p15
aVhttp://www.traveltex.com/activities/adobe-courthouse/
p16
aVhttp://www.traveltex.com/activities/adobe-wells-golf-course/
p17
aVhttp://www.traveltex.com/activities/adolph-thomae-jr-county-park/
p18
aVhttp://www.traveltex.com/activities/adrenaline-rush-zip-line-tour/
p19
aVhttp://www.traveltex.com/activities/adrian-lions-farm-and-ranch-museum/
p20
aVhttp://www.traveltex.com/activities/african-american-museum/
p21
aVhttp://www.traveltex.com/activities/agricultural-heritage-center-museum/
p22
aVhttp://www.traveltex.com/activities/alabamacoushatta-indian-reservation/
p23
aVhttp://www.traveltex.com/activities/alamo-country-club/
p24
aVhttp://www.traveltex.com/activities/alamo-golf-club/
p25
aVhttp://www.traveltex.com/activities/alamo-museumdrt-library/
p26
aVhttp://www.traveltex.com/activities/the-alamo/
p27
aVhttp://www.traveltex.com/activities/alamodome/
p28
aVhttp://www.traveltex.com/activities/alanreedmclean-area-museum/
p29
aVhttp://www.traveltex.com/activities/albany-golf-course/
p30
aVhttp://www.traveltex.com/activities/alden-b-dow-office-museum/
p31
aVhttp://www.traveltex.com/activities/alibates-flint-quarries-national-monument/
p32
aVhttp://www.traveltex.com/activities/alice-country-club/
p33
aVhttp://www.traveltex.com/activities/alice-municipal-golf-course/
p34
aVhttp://www.traveltex.com/activities/alkek-velodrome/
p35
aVhttp://www.traveltex.com/activities/allen-event-center/
p36
aVhttp://www.traveltex.com/activities/allens-landing/
p37
aVhttp://www.traveltex.com/activities/alley-log-cabin/
p38
aVhttp://www.traveltex.com/activities/alpine-country-club/
p39
aVhttp://www.traveltex.com/activities/alpine-golf-club/
p40
aVhttp://www.traveltex.com/activities/alpine-target-golf-center/
p41
aVhttp://www.traveltex.com/activities/alsatian-golf-club/
p42
aVhttp://www.traveltex.com/activities/alvin-golf-and-country-club/
p43
aVhttp://www.traveltex.com/activities/alvin-historical-museum-the-marguerite-rogers-house-museum/
p44
aVhttp://www.traveltex.com/activities/alvin-opry/
p45
aVhttp://www.traveltex.com/activities/amarillo-botanical-gardens/
p46
aVhttp://www.traveltex.com/activities/amarillo-country-club/
p47
aVhttp://www.traveltex.com/activities/amarillo-museum-of-art/
p48
aVhttp://www.traveltex.com/activities/amarillo-zoo/
p49
aVhttp://www.traveltex.com/activities/american-airlines-cr-smith-museum/
p50
aVhttp://www.traveltex.com/activities/american-airlines-center-at-victory-park/
p51
aVhttp://www.traveltex.com/activities/american-freedom-museum/
p52
aVhttp://www.traveltex.com/activities/american-museum-of-agriculture/
p53
aVhttp://www.traveltex.com/activities/american-wind-power-center/
p54
aVhttp://www.traveltex.com/activities/amistad-national-recreation-area/
p55
aVhttp://www.traveltex.com/activities/amon-carter-museum-of-american-art/
p56
aVhttp://www.traveltex.com/activities/anderson-mill-museum/
p57
aVhttp://www.traveltex.com/activities/andrews-county-golf-course/
p58
aVhttp://www.traveltex.com/activities/angelina-national-forest-(1)/
p59
aVhttp://www.traveltex.com/activities/angelina-national-forest-(2)/
p60
aVhttp://www.traveltex.com/activities/angelina-national-forest-(3)/
p61
aVhttp://www.traveltex.com/activities/angelina-national-forest-(4)/
p62
aVhttp://www.traveltex.com/activities/angelo-state-university-planetarium/
p63
aVhttp://www.traveltex.com/activities/anglin-rose/
p64
aVhttp://www.traveltex.com/activities/ann-richards-congress-avenue-bridge/
p65
aVhttp://www.traveltex.com/activities/anson-jones-museum/
p66
aVhttp://www.traveltex.com/activities/anson-municipal-golf-course/
p67
aVhttp://www.traveltex.com/activities/antique-rose-emporium/
p68
aVhttp://www.traveltex.com/activities/anzalduas-park/
p69
aVhttp://www.traveltex.com/activities/apple-country-hi-plains-orchard/
p70
aVhttp://www.traveltex.com/activities/april-sound-country-club-blue-course/
p71
aVhttp://www.traveltex.com/activities/aransas-national-wildlife-refuge-(1)/
p72
aVhttp://www.traveltex.com/activities/aransas-pass-community-park/
p73
aVhttp://www.traveltex.com/activities/archer-county-museum-and-jail/
p74
aVhttp://www.traveltex.com/activities/armand-bayou-nature-center-(1)/
p75
aVhttp://www.traveltex.com/activities/armstrong-browning-library/
p76
aVhttp://www.traveltex.com/activities/armstrong-county-museum/
p77
aVhttp://www.traveltex.com/activities/arneson-river-theatre/
p78
aVhttp://www.traveltex.com/activities/art-and-wildlife-collection/
p79
aVhttp://www.traveltex.com/activities/art-car-museum/
p80
aVhttp://www.traveltex.com/activities/art-center-of-corpus-christi/
p81
aVhttp://www.traveltex.com/activities/art-center-waco/
p82
aVhttp://www.traveltex.com/activities/art-galleries/
p83
aVhttp://www.traveltex.com/activities/art-museum-of-south-texas/
p84
aVhttp://www.traveltex.com/activities/art-museum-of-southeast-texas/
p85
aVhttp://www.traveltex.com/activities/art-studio-inc/
p86
aVhttp://www.traveltex.com/activities/arts-entertainment-districts/
p87
aVhttp://www.traveltex.com/activities/arts-and-crafts-galleries/
p88
aVhttp://www.traveltex.com/activities/arts-for-rural-texas/
p89
aVhttp://www.traveltex.com/activities/ascarate-golf-course-ascarate-course/
p90
aVhttp://www.traveltex.com/activities/ascarate-golf-course-delta-course/
p91
aVhttp://www.traveltex.com/activities/ashton-villa/
p92
aVhttp://www.traveltex.com/activities/att-center/
p93
aVhttp://www.traveltex.com/activities/athens-country-club/
p94
aVhttp://www.traveltex.com/activities/athens-scuba-park/
p95
aVhttp://www.traveltex.com/activities/atlanta-state-park/
p96
aVhttp://www.traveltex.com/activities/attwaters-prairie-chicken-national-wildlife-refuge/
p97
aVhttp://www.traveltex.com/activities/audie-murphy-exhibit-at-the-rike-memorial-library/
p98
aVhttp://www.traveltex.com/activities/audie-murphyamerican-cotton-museum/
p99
aVhttp://www.traveltex.com/activities/augusta-pines-golf-club/
p100
aVhttp://www.traveltex.com/activities/austin-city-limits-tour/
p101
aVhttp://www.traveltex.com/activities/austin-country-club/
p102
aVhttp://www.traveltex.com/activities/austin-county-jail/
p103
aVhttp://www.traveltex.com/activities/austin-duck-adventures/
p104
aVhttp://www.traveltex.com/activities/austin-museum-of-art-at-laguna-gloria/
p105
aVhttp://www.traveltex.com/activities/austin-nature-and-science-center/
p106
aVhttp://www.traveltex.com/activities/austin-overtures-sightseeing/
p107
aVhttp://www.traveltex.com/activities/austin-zoo-and-animal-sanctuary/
p108
aVhttp://www.traveltex.com/activities/avery-ranch-golf-club/
p109
aVhttp://www.traveltex.com/activities/aviation-museum-at-garner-field/
p110
aVhttp://www.traveltex.com/activities/babe-didrikson-zaharias-museum-visitors-center/
p111
aVhttp://www.traveltex.com/activities/babe-zaharias-golf-course/
p112
aVhttp://www.traveltex.com/activities/balcones-canyonlands-national-wildlife-refuge/
p113
aVhttp://www.traveltex.com/activities/balcones-country-club-balcones-course/
p114
aVhttp://www.traveltex.com/activities/balleddlemanmcfarland-house/
p115
aVhttp://www.traveltex.com/activities/ballinger-country-club/
p116
aVhttp://www.traveltex.com/activities/banderas-de-weslaco/
p117
aVhttp://www.traveltex.com/activities/barnard-mill-and-art-museum/
p118
aVhttp://www.traveltex.com/activities/barrington-living-history-farm/
p119
aVhttp://www.traveltex.com/activities/bartlett-area-museum/
p120
aVhttp://www.traveltex.com/activities/barton-creek-resort-spa-crenshaw-cliffside-course/
p121
aVhttp://www.traveltex.com/activities/barton-creek-resort-spa-fazio-canyons-course/
p122
aVhttp://www.traveltex.com/activities/barton-creek-resort-spa-fazio-foothills-course/
p123
aVhttp://www.traveltex.com/activities/basilica-of-our-lady-of-san-juan-del-valle-national-shrine/
p124
aVhttp://www.traveltex.com/activities/bass-performance-hall/
p125
aVhttp://www.traveltex.com/activities/bastrop-county-historical-society-museum/
p126
aVhttp://www.traveltex.com/activities/bastrop-opera-house/
p127
aVhttp://www.traveltex.com/activities/battle-of-adobe-walls-(2)/
p128
aVhttp://www.traveltex.com/activities/battleground-at-deer-park-golf-course/
p129
aVhttp://www.traveltex.com/activities/battleship-texas-state-historic-site/
p130
aVhttp://www.traveltex.com/activities/bay-city-country-club/
p131
aVhttp://www.traveltex.com/activities/bay-education-center/
p132
aVhttp://www.traveltex.com/activities/bay-forest-golf-course/
p133
aVhttp://www.traveltex.com/activities/bay-oaks-country-club/
p134
aVhttp://www.traveltex.com/activities/baylessselby-house-museum/
p135
aVhttp://www.traveltex.com/activities/baylor-county-museum/
p136
aVhttp://www.traveltex.com/activities/bayou-din-golf-club/
p137
aVhttp://www.traveltex.com/activities/beacon-lakes-golf-club-/
p138
aVhttp://www.traveltex.com/activities/bear-creek-golf-club-east-course/
p139
aVhttp://www.traveltex.com/activities/bear-creek-golf-world-challenger-course/
p140
aVhttp://www.traveltex.com/activities/beatyorton-house/
p141
aVhttp://www.traveltex.com/activities/beaumont-country-club/
p142
aVhttp://www.traveltex.com/activities/beaver-brook-country-club/
p143
aVhttp://www.traveltex.com/activities/beeville-art-museum/
p144
aVhttp://www.traveltex.com/activities/beeville-country-club/
p145
aVhttp://www.traveltex.com/activities/bell-county-museum/
p146
aVhttp://www.traveltex.com/activities/bell-park-cacti-garden/
p147
aVhttp://www.traveltex.com/activities/belle-oaks-golf-club/
p148
aVhttp://www.traveltex.com/activities/bellejim-hotel/
p149
aVhttp://www.traveltex.com/activities/bellville-golf-club/
p150
aVhttp://www.traveltex.com/activities/belvin-street-historic-district/
p151
aVhttp://www.traveltex.com/activities/ben-hogan-museum/
p152
aVhttp://www.traveltex.com/activities/bent-tree-country-club/
p153
aVhttp://www.traveltex.com/activities/bentsenrio-grande-valley-state-park/
p154
aVhttp://www.traveltex.com/activities/bentwater-country-club-grand-pines-course/
p155
aVhttp://www.traveltex.com/activities/bentwater-country-club-miller-course/
p156
aVhttp://www.traveltex.com/activities/bentwood-country-club/
p157
aVhttp://www.traveltex.com/activities/berry-creek-country-club/
p158
aVhttp://www.traveltex.com/activities/bertha-voyer-memorial-library/
p159
aVhttp://www.traveltex.com/activities/bethlehem-lutheran-church/
p160
aVhttp://www.traveltex.com/activities/big-bend-ranch-state-park/
p161
aVhttp://www.traveltex.com/activities/big-cedar-country-club/
p162
aVhttp://www.traveltex.com/activities/big-lake-country-club/
p163
aVhttp://www.traveltex.com/activities/big-league-dreams-(1)/
p164
aVhttp://www.traveltex.com/activities/big-spring-country-club/
p165
aVhttp://www.traveltex.com/activities/big-spring-state-park/
p166
aVhttp://www.traveltex.com/activities/big-spring-vietnam-memorial/
p167
aVhttp://www.traveltex.com/activities/big-thicket-canoe-trips/
p168
aVhttp://www.traveltex.com/activities/big-thicket-national-preserve/
p169
aVhttp://www.traveltex.com/activities/bigfoot-wallace-museum/
p170
aVhttp://www.traveltex.com/activities/billy-bobs-texas/
p171
aVhttp://www.traveltex.com/activities/billy-the-kid-museum/
p172
aVhttp://www.traveltex.com/activities/bird-garden-and-wetlands-pond/
p173
aVhttp://www.traveltex.com/activities/birmingham-forest-golf-club/
p174
aVhttp://www.traveltex.com/activities/bishops-palace/
p175
aVhttp://www.traveltex.com/activities/black-gap-wildlife-management-area/
p176
aVhttp://www.traveltex.com/activities/black-rock-park-(1)/
p177
aVhttp://www.traveltex.com/activities/blackhawk-golf-club/
p178
aVhttp://www.traveltex.com/activities/blaketree-national-golf-club/
p179
aVhttp://www.traveltex.com/activities/blanco-state-park/
p180
aVhttp://www.traveltex.com/activities/blanton-museum-of-art/
p181
aVhttp://www.traveltex.com/activities/blarney-stone/
p182
aVhttp://www.traveltex.com/activities/bloomfield-schoolhouse/
p183
aVhttp://www.traveltex.com/activities/blue-hole/
p184
aVhttp://www.traveltex.com/activities/blue-lagoon/
p185
aVhttp://www.traveltex.com/activities/bluebonnet-country-club/
p186
aVhttp://www.traveltex.com/activities/bluebonnet-country-golf-course/
p187
aVhttp://www.traveltex.com/activities/bluebonnet-hill-golf-course/
p188
aVhttp://www.traveltex.com/activities/bob-wills-museum/
p189
aVhttp://www.traveltex.com/activities/bonham-golf-and-country-club/
p190
aVhttp://www.traveltex.com/activities/bonham-state-park/
p191
aVhttp://www.traveltex.com/activities/bonner-bank-building/
p192
aVhttp://www.traveltex.com/activities/boomtown-breckenridge-murals/
p193
aVhttp://www.traveltex.com/activities/boot-hill-cemetery/
p194
aVhttp://www.traveltex.com/activities/boot-ranch/
p195
aVhttp://www.traveltex.com/activities/borden-county-historical-museum/
p196
aVhttp://www.traveltex.com/activities/border-heritage-museum/
p197
aVhttp://www.traveltex.com/activities/bosque-arts-center/
p198
aVhttp://www.traveltex.com/activities/bosque-memorial-museum/
p199
aVhttp://www.traveltex.com/activities/bosque-valley-golf-club/
p200
aVhttp://www.traveltex.com/activities/brackenridge-park/
p201
aVhttp://www.traveltex.com/activities/brackenridge-park-golf-course/
p202
aVhttp://www.traveltex.com/activities/brackenridge-recreation-complex/
p203
aVhttp://www.traveltex.com/activities/brady-municipal-golf-course/
p204
aVhttp://www.traveltex.com/activities/braeburn-country-club/
p205
aVhttp://www.traveltex.com/activities/branding-wall/
p206
aVhttp://www.traveltex.com/activities/brazoria-county-historical-museum/
p207
aVhttp://www.traveltex.com/activities/brazoria-museum/
p208
aVhttp://www.traveltex.com/activities/brazoria-national-wildlife-refuge/
p209
aVhttp://www.traveltex.com/activities/brazos-bend-state-park/
p210
aVhttp://www.traveltex.com/activities/brazos-valley-museum-of-natural-history/
p211
aVhttp://www.traveltex.com/activities/breckenridge-country-club/
p212
aVhttp://www.traveltex.com/activities/breckenridge-fine-arts-center/
p213
aVhttp://www.traveltex.com/activities/bremond-block-tour/
p214
aVhttp://www.traveltex.com/activities/brenham-country-club/
p215
aVhttp://www.traveltex.com/activities/brenham-heritage-museum/
p216
aVhttp://www.traveltex.com/activities/brentwood-country-club/
p217
aVhttp://www.traveltex.com/activities/bridgeport-country-club/
p218
aVhttp://www.traveltex.com/activities/bridlewood-golf-club/
p219
aVhttp://www.traveltex.com/activities/briggs-ranch-golf-club/
p220
aVhttp://www.traveltex.com/activities/briscoe-art-and-antique-collection/
p221
aVhttp://www.traveltex.com/activities/brock-park-golf-course/
p222
aVhttp://www.traveltex.com/activities/brook-hollow-golf-club/
p223
aVhttp://www.traveltex.com/activities/brookhaven-country-club-championship-course/
p224
aVhttp://www.traveltex.com/activities/brookshires-world-of-wildlife-museum-and-country-store/
p225
aVhttp://www.traveltex.com/activities/the-brown-center-of-lamar-state-college/
p226
aVhttp://www.traveltex.com/activities/brown-county-museum-of-history/
p227
aVhttp://www.traveltex.com/activities/brownscurlock-galleries/
p228
aVhttp://www.traveltex.com/activities/brownsville-golf-center/
p229
aVhttp://www.traveltex.com/activities/brownsville-heritage-trail/
p230
aVhttp://www.traveltex.com/activities/brownsville-museum-of-fine-artbrownsville-art-league/
p231
aVhttp://www.traveltex.com/activities/brownsville-old-city-cemetery-old-city-cemetery-center/
p232
aVhttp://www.traveltex.com/activities/brownwood-country-club/
p233
aVhttp://www.traveltex.com/activities/brownwood-public-libraryhistory-and-genealogy-library/
p234
aVhttp://www.traveltex.com/activities/bruce-park/
p235
aVhttp://www.traveltex.com/activities/brush-country-museum/
p236
aVhttp://www.traveltex.com/activities/brushy-creek-regional-trail/
p237
aVhttp://www.traveltex.com/activities/bryan-beach/
p238
aVhttp://www.traveltex.com/activities/buck-west-house/
p239
aVhttp://www.traveltex.com/activities/buckhorn-museum-the-texas-ranger-museum/
p240
aVhttp://www.traveltex.com/activities/buddy-holly-center/
p241
aVhttp://www.traveltex.com/activities/buddy-holly-statue-and-west-texas-walk-of-fame/
p242
aVhttp://www.traveltex.com/activities/buescher-state-park/
p243
aVhttp://www.traveltex.com/activities/buffalo-creek-golf-club/
p244
aVhttp://www.traveltex.com/activities/buffalo-gap-historic-village/
p245
aVhttp://www.traveltex.com/activities/buffalo-lake-national-wildlife-refuge/
p246
aVhttp://www.traveltex.com/activities/buffalo-soldier-monument/
p247
aVhttp://www.traveltex.com/activities/burke-baker-planetarium/
p248
aVhttp://www.traveltex.com/activities/burleson-county-czech-heritage-museum/
p249
aVhttp://www.traveltex.com/activities/burleson-county-historical-museum/
p250
aVhttp://www.traveltex.com/activities/burleson-heritage-museumvisitors-center/
p251
aVhttp://www.traveltex.com/activities/burlingtonrock-island-railroad-museum/
p252
aVhttp://www.traveltex.com/activities/burnet-county-park/
p253
aVhttp://www.traveltex.com/activities/butler-longhorn-museum/
p254
aVhttp://www.traveltex.com/activities/butler-pitch-and-putt/
p255
aVhttp://www.traveltex.com/activities/butterfield-trail-golf-club/
p256
aVhttp://www.traveltex.com/activities/bybee-square/
p257
aVhttp://www.traveltex.com/activities/byzantine-fresco-chapel/
p258
aVhttp://www.traveltex.com/activities/cs-roberts-house/
p259
aVhttp://www.traveltex.com/activities/cabin-on-the-bayou/
p260
aVhttp://www.traveltex.com/activities/cactus-capital-hiking-trail/
p261
aVhttp://www.traveltex.com/activities/caddo-mounds-state-historic-site-1/
p262
aVhttp://www.traveltex.com/activities/cadillac-ranch/
p263
aVhttp://www.traveltex.com/activities/caldwell-county-courthouse/
p264
aVhttp://www.traveltex.com/activities/caldwell-countyjail-museum/
p265
aVhttp://www.traveltex.com/activities/caldwell-historical-museum/
p266
aVhttp://www.traveltex.com/activities/caldwell-zoo/
p267
aVhttp://www.traveltex.com/activities/calhoun-county-museum/
p268
aVhttp://www.traveltex.com/activities/callahan-county-pioneer-museum/
p269
aVhttp://www.traveltex.com/activities/cameron-country-club/
p270
aVhttp://www.traveltex.com/activities/cameron-park-zoo/
p271
aVhttp://www.traveltex.com/activities/c-bowie-memorial-park/
p272
aVhttp://www.traveltex.com/activities/c-fannin-world-war-ii-memorial/
p273
aVhttp://www.traveltex.com/activities/c-ford-historical-park/
p274
aVhttp://www.traveltex.com/activities/c-hearne/
p275
aVhttp://www.traveltex.com/activities/canadian-golf-club/
p276
aVhttp://www.traveltex.com/activities/canadian-river-wagon-bridge/
p277
aVhttp://www.traveltex.com/activities/canary-islanders-cemetery/
p278
aVhttp://www.traveltex.com/activities/canongate-at-lake-windcrest/
p279
aVhttp://www.traveltex.com/activities/canongate-at-the-woodlands-oaks-course/
p280
aVhttp://www.traveltex.com/activities/canongate-at-the-woodlands-panther-trail-course/
p281
aVhttp://www.traveltex.com/activities/canton-plaza-museum/
p282
aVhttp://www.traveltex.com/activities/canyon-country-club/
p283
aVhttp://www.traveltex.com/activities/canyon-creek-country-club/
p284
aVhttp://www.traveltex.com/activities/canyon-lake-golf-club/
p285
aVhttp://www.traveltex.com/activities/canyon-of-the-eagles/
p286
aVhttp://www.traveltex.com/activities/canyon-springs-golf-club/
p287
aVhttp://www.traveltex.com/activities/canyon-west-golf-club/
p288
aVhttp://www.traveltex.com/activities/cape-royale-country-club/
p289
aVhttp://www.traveltex.com/activities/capital-cruises/
p290
aVhttp://www.traveltex.com/activities/capital-of-texas-zoo/
p291
aVhttp://www.traveltex.com/activities/caprock-canyons-state-park-trailway/
p292
aVhttp://www.traveltex.com/activities/caprock-canyons-trailway/
p293
aVhttp://www.traveltex.com/activities/carl-mary-welhausen-library/
p294
aVhttp://www.traveltex.com/activities/carnegie-library/
p295
aVhttp://www.traveltex.com/activities/carnegie-library-(1)/
p296
aVhttp://www.traveltex.com/activities/carnegie-library-(2)/
p297
aVhttp://www.traveltex.com/activities/carrizo-springs-municipal-golf-course/
p298
aVhttp://www.traveltex.com/activities/carver-community-cultural-center/
p299
aVhttp://www.traveltex.com/activities/casa-blanca-golf-course/
p300
aVhttp://www.traveltex.com/activities/casa-navarro-state-historic-site/
p301
aVhttp://www.traveltex.com/activities/cascade-caverns/
p302
aVhttp://www.traveltex.com/activities/castaway-cove-waterpark/
p303
aVhttp://www.traveltex.com/activities/castro-county-museum/
p304
aVhttp://www.traveltex.com/activities/cavanaugh-flight-museum/
p305
aVhttp://www.traveltex.com/activities/cave-without-a-name/
p306
aVhttp://www.traveltex.com/activities/caverns-of-sonora/
p307
aVhttp://www.traveltex.com/activities/cedar-creek-golf-course/
p308
aVhttp://www.traveltex.com/activities/cedar-crest-golf-course/
p309
aVhttp://www.traveltex.com/activities/cedar-hill-state-park-(1)/
p310
aVhttp://www.traveltex.com/activities/celebration-park/
p311
aVhttp://www.traveltex.com/activities/celina-area-heritage-museum/
p312
aVhttp://www.traveltex.com/activities/centennial-house/
p313
aVhttp://www.traveltex.com/activities/centennial-museum-chihuahuan-desert-gardens/
p314
aVhttp://www.traveltex.com/activities/center-country-club/
p315
aVhttp://www.traveltex.com/activities/center-for-the-arts-sciences/
p316
aVhttp://www.traveltex.com/activities/central-texas-bonsai-exhibit/
p317
aVhttp://www.traveltex.com/activities/central-texas-oil-patch-museum/
p318
aVhttp://www.traveltex.com/activities/cesar-chavez-memorial/
p319
aVhttp://www.traveltex.com/activities/chambers-county-golf-course/
p320
aVhttp://www.traveltex.com/activities/chambers-county-museum/
p321
aVhttp://www.traveltex.com/activities/chambers-house/
p322
aVhttp://www.traveltex.com/activities/chamizal-national-memorial/
p323
aVhttp://www.traveltex.com/activities/champions-golf-club-cypress-creek-course/
p324
aVhttp://www.traveltex.com/activities/chandor-gardens/
p325
aVhttp://www.traveltex.com/activities/chaparral-golf-club/
p326
aVhttp://www.traveltex.com/activities/chaparral-trail/
p327
aVhttp://www.traveltex.com/activities/chaparral-wildlife-management-area/
p328
aVhttp://www.traveltex.com/activities/chappell-hill-historical-museum/
p329
aVhttp://www.traveltex.com/activities/charles-w-eisemann-center-for-performing-arts/
p330
aVhttp://www.traveltex.com/activities/charnwood-residential-historical-district/
p331
aVhttp://www.traveltex.com/activities/chase-oaks-golf-club-blackjack-course/
p332
aVhttp://www.traveltex.com/activities/chautauqua-auditorium/
p333
aVhttp://www.traveltex.com/activities/chemical-row/
p334
aVhttp://www.traveltex.com/activities/chemlake-golf-club/
p335
aVhttp://www.traveltex.com/activities/cherokee-country-golf-association/
p336
aVhttp://www.traveltex.com/activities/cherokee-county-courthouse/
p337
aVhttp://www.traveltex.com/activities/cherokee-history-trails/
p338
aVhttp://www.traveltex.com/activities/cherokee-trace-animal-safari/
p339
aVhttp://www.traveltex.com/activities/chester-w-ditto-golf-course/
p340
aVhttp://www.traveltex.com/activities/chestnut-square-historic-village/
p341
aVhttp://www.traveltex.com/activities/chihuahuan-desert-nature-center/
p342
aVhttp://www.traveltex.com/activities/childrens-aquarium-at-fair-park/
p343
aVhttp://www.traveltex.com/activities/childrens-discovery-museum/
p344
aVhttp://www.traveltex.com/activities/childrens-museum-of-brownsville/
p345
aVhttp://www.traveltex.com/activities/childrens-museum-of-houston/
p346
aVhttp://www.traveltex.com/activities/childrens-museum-of-the-brazos-valley/
p347
aVhttp://www.traveltex.com/activities/childress-county-heritage-museum/
p348
aVhttp://www.traveltex.com/activities/chinati-foundationla-fundacion-chinati/
p349
aVhttp://www.traveltex.com/activities/chisholm-trail-memorial-park/
p350
aVhttp://www.traveltex.com/activities/choke-canyon-state-park/
p351
aVhttp://www.traveltex.com/activities/christ-church-cathedral/
p352
aVhttp://www.traveltex.com/activities/cibolo-nature-center/
p353
aVhttp://www.traveltex.com/activities/cimarron-hills-golf-and-country-club/
p354
aVhttp://www.traveltex.com/activities/citibank-ballparkmidland-rockhounds/
p355
aVhttp://www.traveltex.com/activities/city-by-the-sea-museum/
p356
aVhttp://www.traveltex.com/activities/city-in-miniature/
p357
aVhttp://www.traveltex.com/activities/claiborne-kyle-log-house/
p358
aVhttp://www.traveltex.com/activities/clara-foster-slough-museum/
p359
aVhttp://www.traveltex.com/activities/clark-gardens-botanical-park/
p360
aVhttp://www.traveltex.com/activities/clarksville-country-club/
p361
aVhttp://www.traveltex.com/activities/clear-creek-golf-club/
p362
aVhttp://www.traveltex.com/activities/cleburne-golf-links/
p363
aVhttp://www.traveltex.com/activities/cleburne-golf-ranch/
p364
aVhttp://www.traveltex.com/activities/cleburne-state-park/
p365
aVhttp://www.traveltex.com/activities/club-at-carlton-woods-fazio-course/
p366
aVhttp://www.traveltex.com/activities/club-at-carlton-woods-nicklaus-course/
p367
aVhttp://www.traveltex.com/activities/club-at-cimarron/
p368
aVhttp://www.traveltex.com/activities/club-at-falcon-point/
p369
aVhttp://www.traveltex.com/activities/club-at-sonterra-north-course/
p370
aVhttp://www.traveltex.com/activities/club-at-sonterra-south-course/
p371
aVhttp://www.traveltex.com/activities/coastal-birding-trail-sites-(1)/
p372
aVhttp://www.traveltex.com/activities/coastal-birding-trail-sites-3/
p373
aVhttp://www.traveltex.com/activities/cochran-blair-potts-museum/
p374
aVhttp://www.traveltex.com/activities/cockrell-butterfly-center/
p375
aVhttp://www.traveltex.com/activities/coles-antique-village-and-flea-market/
p376
aVhttp://www.traveltex.com/activities/coleman-country-club/
p377
aVhttp://www.traveltex.com/activities/coleman-county-museum/
p378
aVhttp://www.traveltex.com/activities/coleto-creek-park/
p379
aVhttp://www.traveltex.com/activities/coleto-creek-park-(1)/
p380
aVhttp://www.traveltex.com/activities/collin-county-farm-museum/
p381
aVhttp://www.traveltex.com/activities/collingsworth-county-museum-and-art-center/
p382
aVhttp://www.traveltex.com/activities/colonel-excursion-boat/
p383
aVhttp://www.traveltex.com/activities/colonial-country-club/
p384
aVhttp://www.traveltex.com/activities/colony-creek-country-club/
p385
aVhttp://www.traveltex.com/activities/colorado-bend-state-park/
p386
aVhttp://www.traveltex.com/activities/colorado-county-courthouse/
p387
aVhttp://www.traveltex.com/activities/columbia-historical-museum/
p388
aVhttp://www.traveltex.com/activities/columbia-lakes-resort-conference-center-and-country-club/
p389
aVhttp://www.traveltex.com/activities/columbia-scientific-balloon-facility/
p390
aVhttp://www.traveltex.com/activities/comanche-county-historical-museum/
p391
aVhttp://www.traveltex.com/activities/comanche-creek-golf-course/
p392
aVhttp://www.traveltex.com/activities/comanche-depot/
p393
aVhttp://www.traveltex.com/activities/comanche-trace-golf-club-creeks-course/
p394
aVhttp://www.traveltex.com/activities/comanche-trace-golf-club-hills-course/
p395
aVhttp://www.traveltex.com/activities/comanche-trace-golf-club-valley-course/
p396
aVhttp://www.traveltex.com/activities/comanche-trail-golf-complex-arrowhead-course/
p397
aVhttp://www.traveltex.com/activities/comanche-trail-golf-complex-tomahawk-course/
p398
aVhttp://www.traveltex.com/activities/comanche-trail-park/
p399
aVhttp://www.traveltex.com/activities/commemorative-air-force-central-texas-wing/
p400
aVhttp://www.traveltex.com/activities/commemorative-air-force-rio-grande-valley-wing/
p401
aVhttp://www.traveltex.com/activities/commemorative-air-force-wing/
p402
aVhttp://www.traveltex.com/activities/concho-springs-golf-course/
p403
aVhttp://www.traveltex.com/activities/concordia-cemetery/
p404
aVhttp://www.traveltex.com/activities/confederate-reunion-grounds-state-historic-site/
p405
aVhttp://www.traveltex.com/activities/congress-avenue-and-east-sixth-street-tour/
p406
aVhttp://www.traveltex.com/activities/conn-brown-harboraransas-pass-wetlands/
p407
aVhttp://www.traveltex.com/activities/connie-hagar-cottage-sanctuary/
p408
aVhttp://www.traveltex.com/activities/conroe-country-club/
p409
aVhttp://www.traveltex.com/activities/conservation-plaza/
p410
aVhttp://www.traveltex.com/activities/constellation-field/
p411
aVhttp://www.traveltex.com/activities/the-cook-center-planetarium/
p412
aVhttp://www.traveltex.com/activities/cooper-lake-state-park/
p413
aVhttp://www.traveltex.com/activities/copper-breaks-state-park-(1)/
p414
aVhttp://www.traveltex.com/activities/copperas-hollow-country-club/
p415
aVhttp://www.traveltex.com/activities/coronado-country-club/
p416
aVhttp://www.traveltex.com/activities/corpus-christi-country-club/
p417
aVhttp://www.traveltex.com/activities/corpus-christi-museum-of-science-and-history/
p418
aVhttp://www.traveltex.com/activities/corsicana-country-club/
p419
aVhttp://www.traveltex.com/activities/coryell-county-courthouse/
p420
aVhttp://www.traveltex.com/activities/coryell-museum-and-historical-center/
p421
aVhttp://www.traveltex.com/activities/costumes-of-the-americas/
p422
aVhttp://www.traveltex.com/activities/cotton-belt-railroad-district/
p423
aVhttp://www.traveltex.com/activities/cottonwood-creek-golf-course/
p424
aVhttp://www.traveltex.com/activities/country-cus-golf-course/
p425
aVhttp://www.traveltex.com/activities/country-place-golf-club/
p426
aVhttp://www.traveltex.com/activities/country-view-golf-course/
p427
aVhttp://www.traveltex.com/activities/courthouse-square/
p428
aVhttp://www.traveltex.com/activities/cowboy-and-his-horse-statue/
p429
aVhttp://www.traveltex.com/activities/cowboy-country-museum/
p430
aVhttp://www.traveltex.com/activities/cowboys-golf-club/
p431
aVhttp://www.traveltex.com/activities/coyote-ridge-golf-club/
p432
aVhttp://www.traveltex.com/activities/crane-county-country-club/
p433
aVhttp://www.traveltex.com/activities/crazy-water-well/
p434
aVhttp://www.traveltex.com/activities/creation-evidence-museum/
p435
aVhttp://www.traveltex.com/activities/crighton-theatre/
p436
aVhttp://www.traveltex.com/activities/crockett-county-museum/
p437
aVhttp://www.traveltex.com/activities/crockett-street-entertainment-district/
p438
aVhttp://www.traveltex.com/activities/crooked-creek-municipal-golf-course/
p439
aVhttp://www.traveltex.com/activities/crosby-county-pioneer-memorial-museum/
p440
aVhttp://www.traveltex.com/activities/cross-plains-area-veterans-memorial-park/
p441
aVhttp://www.traveltex.com/activities/cross-timbers-hiking-trail/
p442
aVhttp://www.traveltex.com/activities/crow-collection-of-asian-art/
p443
aVhttp://www.traveltex.com/activities/crown-colony-country-club/
p444
aVhttp://www.traveltex.com/activities/crystal-beach-community-golf-course/
p445
aVhttp://www.traveltex.com/activities/cuero-heritage-museum/
p446
aVhttp://www.traveltex.com/activities/cuero-park-municipal-golf-course/
p447
aVhttp://www.traveltex.com/activities/cultural-activities-center/
p448
aVhttp://www.traveltex.com/activities/cultural-arts-center/
p449
aVhttp://www.traveltex.com/activities/cushing-memorial-library-and-archives/
p450
aVhttp://www.traveltex.com/activities/cycle-ranch-motocross-park/
p451
aVhttp://www.traveltex.com/activities/cypress-canoe-tours/
p452
aVhttp://www.traveltex.com/activities/cypress-valley-canopy-tours/
p453
aVhttp://www.traveltex.com/activities/cypresswood-golf-club-cypress-course/
p454
aVhttp://www.traveltex.com/activities/cypresswood-golf-club-tradition-course/
p455
aVhttp://www.traveltex.com/activities/czech-center-museum-houston/
p456
aVhttp://www.traveltex.com/activities/czech-heritage-museum-and-genealogy-center/
p457
aVhttp://www.traveltex.com/activities/darte-center/
p458
aVhttp://www.traveltex.com/activities/daingerfield-state-park/
p459
aVhttp://www.traveltex.com/activities/dal-paso-museum/
p460
aVhttp://www.traveltex.com/activities/dalhart-country-club/
p461
aVhttp://www.traveltex.com/activities/dallas-arboretum/
p462
aVhttp://www.traveltex.com/activities/dallas-athletic-club-blue-course/
p463
aVhttp://www.traveltex.com/activities/dallas-athletic-club-gold-course/
p464
aVhttp://www.traveltex.com/activities/dallas-country-club/
p465
aVhttp://www.traveltex.com/activities/dallas-county-historical-plaza/
p466
aVhttp://www.traveltex.com/activities/dallas-museum-of-art/
p467
aVhttp://www.traveltex.com/activities/dallas-national-golf-club/
p468
aVhttp://www.traveltex.com/activities/dallas-nature-center/
p469
aVhttp://www.traveltex.com/activities/dallas-symphony-orchestra/
p470
aVhttp://www.traveltex.com/activities/dallas-theatre-center/
p471
aVhttp://www.traveltex.com/activities/dallas-world-aquarium/
p472
aVhttp://www.traveltex.com/activities/dallas-zoo/
p473
aVhttp://www.traveltex.com/activities/danevang-cemetery/
p474
aVhttp://www.traveltex.com/activities/danevang-lutheran-church/
p475
aVhttp://www.traveltex.com/activities/danish-heritage-preservation-society/
p476
aVhttp://www.traveltex.com/activities/david-crockett-monument/
p477
aVhttp://www.traveltex.com/activities/davis-mountains-state-park/
p478
aVhttp://www.traveltex.com/activities/davy-crockett-national-forest/
p479
aVhttp://www.traveltex.com/activities/davy-crockett-national-forest-(1)/
p480
aVhttp://www.traveltex.com/activities/davy-crockett-national-forest-(2)/
p481
aVhttp://www.traveltex.com/activities/deaf-smith-county-historical-museum/
p482
aVhttp://www.traveltex.com/activities/decatur-golf-and-country-club/
p483
aVhttp://www.traveltex.com/activities/decker-park/
p484
aVhttp://www.traveltex.com/activities/decordova-bend-country-club-decordova-bend-course/
p485
aVhttp://www.traveltex.com/activities/deep-ellum-entertainment-district/
p486
aVhttp://www.traveltex.com/activities/degolyer-estate/
p487
aVhttp://www.traveltex.com/activities/delaware-springs-golf-course/
p488
aVhttp://www.traveltex.com/activities/dell-diamond/
p489
aVhttp://www.traveltex.com/activities/denison-country-club/
p490
aVhttp://www.traveltex.com/activities/denton-county-african-american-museum/
p491
aVhttp://www.traveltex.com/activities/denton-county-courthouse-on-the-square-museum/
p492
aVhttp://www.traveltex.com/activities/denton-county-historical-park/
p493
aVhttp://www.traveltex.com/activities/denton-firefighters-museum/
p494
aVhttp://www.traveltex.com/activities/denver-city-historical-museum/
p495
aVhttp://www.traveltex.com/activities/depot-entertainment-district/
p496
aVhttp://www.traveltex.com/activities/depot-librarycivic-center/
p497
aVhttp://www.traveltex.com/activities/depot-librarymuseum/
p498
aVhttp://www.traveltex.com/activities/depot-museum/
p499
aVhttp://www.traveltex.com/activities/depot-museum-and-childrens-discovery-center/
p500
aVhttp://www.traveltex.com/activities/depot-public-library/
p501
aVhttp://www.traveltex.com/activities/depot-train-museum/
p502
aVhttp://www.traveltex.com/activities/desert-pines-municipal-golf-course/
p503
aVhttp://www.traveltex.com/activities/devils-bowl-speedway/
p504
aVhttp://www.traveltex.com/activities/devils-rope-and-route-66-museum/
p505
aVhttp://www.traveltex.com/activities/devils-river-state-natural-area/
p506
aVhttp://www.traveltex.com/activities/devils-sinkhole-state-natural-area-(1)/
p507
aVhttp://www.traveltex.com/activities/dewitt-county-courthouse/
p508
aVhttp://www.traveltex.com/activities/dewitt-county-historical-museum/
p509
aVhttp://www.traveltex.com/activities/diamond-oaks-country-club/
p510
aVhttp://www.traveltex.com/activities/diamondback-golf-club/
p511
aVhttp://www.traveltex.com/activities/dicks-classic-garage-car-museum/
p512
aVhttp://www.traveltex.com/activities/dickens-county-museum/
p513
aVhttp://www.traveltex.com/activities/dickinson-railroad-museum/
p514
aVhttp://www.traveltex.com/activities/dickson-monument/
p515
aVhttp://www.traveltex.com/activities/dike-and-marina/
p516
aVhttp://www.traveltex.com/activities/dilue-rose-harris-house-museum/
p517
aVhttp://www.traveltex.com/activities/dinosaur-park/
p518
aVhttp://www.traveltex.com/activities/dinosaur-valley-state-park/
p519
aVhttp://www.traveltex.com/activities/dinosaur-world/
p520
aVhttp://www.traveltex.com/activities/the-discovery-place/
p521
aVhttp://www.traveltex.com/activities/the-discovery-science-place/
p522
aVhttp://www.traveltex.com/activities/dishman-art-museum/
p523
aVhttp://www.traveltex.com/activities/dogwood-hills-country-club/
p524
aVhttp://www.traveltex.com/activities/doll-display/
p525
aVhttp://www.traveltex.com/activities/dominion-country-club/
p526
aVhttp://www.traveltex.com/activities/don-freeman-memorial-museum/
p527
aVhttp://www.traveltex.com/activities/don-harrington-discovery-center/
p528
aVhttp://www.traveltex.com/activities/don-pedrito-shrine/
p529
aVhttp://www.traveltex.com/activities/donley-county-courthouse/
p530
aVhttp://www.traveltex.com/activities/donna-hooks-fletcher-museum/
p531
aVhttp://www.traveltex.com/activities/doss-heritage-culture-center/
p532
aVhttp://www.traveltex.com/activities/dots-mini-museum/
p533
aVhttp://www.traveltex.com/activities/double-lake-recreation-area/
p534
aVhttp://www.traveltex.com/activities/downtown-aquarium/
p535
aVhttp://www.traveltex.com/activities/downtown-historic-district/
p536
aVhttp://www.traveltex.com/activities/downtown-historic-district-(1)/
p537
aVhttp://www.traveltex.com/activities/downtown-historic-square/
p538
aVhttp://www.traveltex.com/activities/downtown-jackson-street-district/
p539
aVhttp://www.traveltex.com/activities/downtown-square/
p540
aVhttp://www.traveltex.com/activities/downtown-walking-tour/
p541
aVhttp://www.traveltex.com/activities/dr-pepper-arena/
p542
aVhttp://www.traveltex.com/activities/dr-pepper-ballpark/
p543
aVhttp://www.traveltex.com/activities/dr-pepper-museum/
p544
aVhttp://www.traveltex.com/activities/dr-eugene-clark-library/
p545
aVhttp://www.traveltex.com/activities/dr-pound-historical-farmstead-museum/
p546
aVhttp://www.traveltex.com/activities/dublin-bottling-works-old-docs-soda-shop/
p547
aVhttp://www.traveltex.com/activities/dublin-historical-museum/
p548
aVhttp://www.traveltex.com/activities/dublin-rodeo-heritage-museum/
p549
aVhttp://www.traveltex.com/activities/dublin-veterans-memorial/
p550
aVhttp://www.traveltex.com/activities/dude-ranches/
p551
aVhttp://www.traveltex.com/activities/dunham-bible-museum/
p552
aVhttp://www.traveltex.com/activities/dupree-park-nature-center/
p553
aVhttp://www.traveltex.com/activities/durangos-canyon/
p554
aVhttp://www.traveltex.com/activities/dursttaylor-historic-house-gardens/
p555
aVhttp://www.traveltex.com/activities/dyess-air-force-base/
p556
aVhttp://www.traveltex.com/activities/e-h-danner-museum-of-telephony/
p557
aVhttp://www.traveltex.com/activities/eagle-lake-golf-course/
p558
aVhttp://www.traveltex.com/activities/eagle-pass-golf-club/
p559
aVhttp://www.traveltex.com/activities/eagle-pointe-golf-club/
p560
aVhttp://www.traveltex.com/activities/earleharrison-house-pape-gardens/
p561
aVhttp://www.traveltex.com/activities/east-sixth-street-old-pecan-street/
p562
aVhttp://www.traveltex.com/activities/east-texas-discovery-well/
p563
aVhttp://www.traveltex.com/activities/east-texas-gators-and-wildlife-park/
p564
aVhttp://www.traveltex.com/activities/east-texas-oil-museum/
p565
aVhttp://www.traveltex.com/activities/east-texas-regional-arts-center/
p566
aVhttp://www.traveltex.com/activities/eastern-hills-country-club/
p567
aVhttp://www.traveltex.com/activities/eastland-county-museum/
p568
aVhttp://www.traveltex.com/activities/eaton-hill-nature-center/
p569
aVhttp://www.traveltex.com/activities/ebony-hills-public-golf-course/
p570
aVhttp://www.traveltex.com/activities/eckert-james-river-bat-cave/
p571
aVhttp://www.traveltex.com/activities/ector-theater/
p572
aVhttp://www.traveltex.com/activities/edge-at-allen-station-park/
p573
aVhttp://www.traveltex.com/activities/edgewood-heritage-park-museum/
p574
aVhttp://www.traveltex.com/activities/edinburg-scenic-wetlands-and-world-birding-center/
p575
aVhttp://www.traveltex.com/activities/edison-museum/
p576
aVhttp://www.traveltex.com/activities/edwin-wolters-memorial-museum/
p577
aVhttp://www.traveltex.com/activities/eggleston-house/
p578
aVhttp://www.traveltex.com/activities/eisenhower-birthplace-state-historic-site/
p579
aVhttp://www.traveltex.com/activities/eisenhower-state-park/
p580
aVhttp://www.traveltex.com/activities/el-co-country-club/
p581
aVhttp://www.traveltex.com/activities/el-co-museum-of-natural-history/
p582
aVhttp://www.traveltex.com/activities/el-paseo-de-santa-angela/
p583
aVhttp://www.traveltex.com/activities/el-paso-country-club/
p584
aVhttp://www.traveltex.com/activities/el-paso-county-historical-society/
p585
aVhttp://www.traveltex.com/activities/el-paso-holocaust-museum-and-study-center/
p586
aVhttp://www.traveltex.com/activities/el-paso-museum-of-archaeology/
p587
aVhttp://www.traveltex.com/activities/el-paso-museum-of-art/
p588
aVhttp://www.traveltex.com/activities/el-paso-museum-of-history/
p589
aVhttp://www.traveltex.com/activities/el-paso-zoo/
p590
aVhttp://www.traveltex.com/activities/eldorado-country-club/
p591
aVhttp://www.traveltex.com/activities/elisabet-ney-museum/
p592
aVhttp://www.traveltex.com/activities/elk-hollow-golf-club/
p593
aVhttp://www.traveltex.com/activities/elkins-lake-recreation-association-hills-course/
p594
aVhttp://www.traveltex.com/activities/elkins-lake-recreation-association-ravines-course/
p595
aVhttp://www.traveltex.com/activities/ellen-trout-zoo/
p596
aVhttp://www.traveltex.com/activities/ellis-county-courthouse/
p597
aVhttp://www.traveltex.com/activities/ellis-county-museum/
p598
aVhttp://www.traveltex.com/activities/elm-fork-nature-preserve/
p599
aVhttp://www.traveltex.com/activities/empty-saddle-monument/
p600
aVhttp://www.traveltex.com/activities/enchanted-rock-state-natural-area-1/
p601
aVhttp://www.traveltex.com/activities/enchanted-springs-ranch/
p602
aVhttp://www.traveltex.com/activities/estero-llano-grande-state-park/
p603
aVhttp://www.traveltex.com/activities/evergreen-cemetery/
p604
aVhttp://www.traveltex.com/activities/evergreen-point-golf-club/
p605
aVhttp://www.traveltex.com/activities/exotic-cat-refuge-wildlife-orphanage/
p606
aVhttp://www.traveltex.com/activities/exotic-resort-zoo/
p607
aVhttp://www.traveltex.com/activities/ezekiel-airship/
p608
aVhttp://www.traveltex.com/activities/ezekiel-w-cullen-home/
p609
aVhttp://www.traveltex.com/activities/fair-park/
p610
aVhttp://www.traveltex.com/activities/fairchild-state-forest/
p611
aVhttp://www.traveltex.com/activities/fairfield-lake-state-park/
p612
aVhttp://www.traveltex.com/activities/falcon-state-park-(1)/
p613
aVhttp://www.traveltex.com/activities/falconhead-golf-club/
p614
aVhttp://www.traveltex.com/activities/falfurrias-golf-course/
p615
aVhttp://www.traveltex.com/activities/fallen-warrior-memorial/
p616
aVhttp://www.traveltex.com/activities/falls-county-museum/
p617
aVhttp://www.traveltex.com/activities/the-falls-on-the-colorado-museum/
p618
aVhttp://www.traveltex.com/activities/famous-mineral-water-company/
p619
aVhttp://www.traveltex.com/activities/fannin-battleground-state-historic-site/
p620
aVhttp://www.traveltex.com/activities/fannin-county-museum-of-history/
p621
aVhttp://www.traveltex.com/activities/fannin-plaza/
p622
aVhttp://www.traveltex.com/activities/fantasyland/
p623
aVhttp://www.traveltex.com/activities/fanthorp-inn-state-historic-site/
p624
aVhttp://www.traveltex.com/activities/the-farmstead/
p625
aVhttp://www.traveltex.com/activities/fay-ruth-shaw-memorial-public-library/
p626
aVhttp://www.traveltex.com/activities/fayette-heritage-museum-and-archives/
p627
aVhttp://www.traveltex.com/activities/fayetteville-area-heritage-museum/
p628
aVhttp://www.traveltex.com/activities/fc-dallas-stadium/
p629
aVhttp://www.traveltex.com/activities/felty-outdoor-oil-museum/
p630
aVhttp://www.traveltex.com/activities/fernland-historical-park/
p631
aVhttp://www.traveltex.com/activities/ferry-rides/
p632
aVhttp://www.traveltex.com/activities/fielder-museum/
p633
aVhttp://www.traveltex.com/activities/fire-museum/
p634
aVhttp://www.traveltex.com/activities/fire-museum-(1)/
p635
aVhttp://www.traveltex.com/activities/fire-museum-of-texas/
p636
aVhttp://www.traveltex.com/activities/fire-station-no-1/
p637
aVhttp://www.traveltex.com/activities/firearms-museum-of-texas/
p638
aVhttp://www.traveltex.com/activities/firehall-museum/
p639
aVhttp://www.traveltex.com/activities/firestation-museum/
p640
aVhttp://www.traveltex.com/activities/firewheel-golf-park-bridges-champion-course/
p641
aVhttp://www.traveltex.com/activities/firewheel-golf-park-bridges-tradition-course/
p642
aVhttp://www.traveltex.com/activities/firewheel-golf-park-lakes-course/
p643
aVhttp://www.traveltex.com/activities/first-lutheran-church/
p644
aVhttp://www.traveltex.com/activities/first-presbyterian-church/
p645
aVhttp://www.traveltex.com/activities/first-presbyterian-church-(1)/
p646
aVhttp://www.traveltex.com/activities/fishing-piers/
p647
aVhttp://www.traveltex.com/activities/fishing-piers-(1)/
p648
aVhttp://www.traveltex.com/activities/fishing-piers-(2)/
p649
aVhttp://www.traveltex.com/activities/flatonia-golf-course/
p650
aVhttp://www.traveltex.com/activities/fleming-oak/
p651
aVhttp://www.traveltex.com/activities/florence-ranch-homestead/
p652
aVhttp://www.traveltex.com/activities/flower-mound-presbyterian-cemetery/
p653
aVhttp://www.traveltex.com/activities/flower-mound-presbyterian-church/
p654
aVhttp://www.traveltex.com/activities/the-flower-mound/
p655
aVhttp://www.traveltex.com/activities/floyd-county-museum/
p656
aVhttp://www.traveltex.com/activities/floydada-country-club/
p657
aVhttp://www.traveltex.com/activities/flying-l-ranch-golf-course/
p658
aVhttp://www.traveltex.com/activities/footbridge-garden-park/
p659
aVhttp://www.traveltex.com/activities/footprints-in-courage-museum/
p660
aVhttp://www.traveltex.com/activities/forest-creek-golf-club/
p661
aVhttp://www.traveltex.com/activities/fort-anahuac-park/
p662
aVhttp://www.traveltex.com/activities/fort-bend-museum/
p663
aVhttp://www.traveltex.com/activities/fort-bliss-monuments-and-museums/
p664
aVhttp://www.traveltex.com/activities/fort-bliss-museum-and-study-center/
p665
aVhttp://www.traveltex.com/activities/fort-boggy-state-park/
p666
aVhttp://www.traveltex.com/activities/fort-brown-memorial-golf-course/
p667
aVhttp://www.traveltex.com/activities/fort-brownuniversity-of-texas-at-brownsvilletexas-southmost-college/
p668
aVhttp://www.traveltex.com/activities/fort-chadbourne/
p669
aVhttp://www.traveltex.com/activities/fort-chadbourne-cemetery/
p670
aVhttp://www.traveltex.com/activities/fort-clark-guardhouse-museum/
p671
aVhttp://www.traveltex.com/activities/fort-clark-springs-golf-course/
p672
aVhttp://www.traveltex.com/activities/fort-concho/
p673
aVhttp://www.traveltex.com/activities/fort-crockett/
p674
aVhttp://www.traveltex.com/activities/fort-croghan-museum/
p675
aVhttp://www.traveltex.com/activities/fort-davis-national-historic-site/
p676
aVhttp://www.traveltex.com/activities/fort-duncan/
p677
aVhttp://www.traveltex.com/activities/fort-duncan-museum/
p678
aVhttp://www.traveltex.com/activities/fort-griffin-state-historic-site/
p679
aVhttp://www.traveltex.com/activities/fort-hood/
p680
aVhttp://www.traveltex.com/activities/fort-inge/
p681
aVhttp://www.traveltex.com/activities/fort-inglish-park/
p682
aVhttp://www.traveltex.com/activities/fort-lancaster-historic-site/
p683
aVhttp://www.traveltex.com/activities/fort-leaton-state-historic-site/
p684
aVhttp://www.traveltex.com/activities/fort-martin-scott/
p685
aVhttp://www.traveltex.com/activities/fort-mason/
p686
aVhttp://www.traveltex.com/activities/fort-mcintosh/
p687
aVhttp://www.traveltex.com/activities/fort-mckavett-state-historic-site/
p688
aVhttp://www.traveltex.com/activities/fort-parker-memorial-cemetery/
p689
aVhttp://www.traveltex.com/activities/fort-parker-state-park/
p690
aVhttp://www.traveltex.com/activities/fort-phantom-hill/
p691
aVhttp://www.traveltex.com/activities/fort-ringgold/
p692
aVhttp://www.traveltex.com/activities/fort-sam-houston-golf-club-la-loma-course/
p693
aVhttp://www.traveltex.com/activities/fort-sam-houston-golf-club-salado-del-rio-course/
p694
aVhttp://www.traveltex.com/activities/fort-sam-houston-museum/
p695
aVhttp://www.traveltex.com/activities/fort-travis-seashore-park/
p696
aVhttp://www.traveltex.com/activities/fort-worth-botanic-garden/
p697
aVhttp://www.traveltex.com/activities/fort-worth-herd/
p698
aVhttp://www.traveltex.com/activities/fort-worth-museum-of-science-and-history/
p699
aVhttp://www.traveltex.com/activities/fort-worth-nature-center-and-refuge/
p700
aVhttp://www.traveltex.com/activities/fort-worth-zoo/
p701
aVhttp://www.traveltex.com/activities/fossatis-delicatessen/
p702
aVhttp://www.traveltex.com/activities/fossil-rim-wildlife-center/
p703
aVhttp://www.traveltex.com/activities/four-seasons-resort-and-club-cottonwood-valley-course/
p704
aVhttp://www.traveltex.com/activities/four-seasons-resort-and-club-tpc-las-colinas-course/
p705
aVhttp://www.traveltex.com/activities/fox-creek-golf-course/
p706
aVhttp://www.traveltex.com/activities/fox-memorial-marker/
p707
aVhttp://www.traveltex.com/activities/frank-b-davison-home/
p708
aVhttp://www.traveltex.com/activities/frank-buck-zoo/
p709
aVhttp://www.traveltex.com/activities/franklin-cemetery/
p710
aVhttp://www.traveltex.com/activities/franklin-county-genealogy-society/
p711
aVhttp://www.traveltex.com/activities/franklin-mountains-state-park/
p712
aVhttp://www.traveltex.com/activities/fred-jones-nature-sanctuary/
p713
aVhttp://www.traveltex.com/activities/freedmans-cemetery-memorial/
p714
aVhttp://www.traveltex.com/activities/freedom-museum-usa/
p715
aVhttp://www.traveltex.com/activities/freedom-plaza/
p716
aVhttp://www.traveltex.com/activities/freestone-county-museum/
p717
aVhttp://www.traveltex.com/activities/french-legation/
p718
aVhttp://www.traveltex.com/activities/friedrich-wilderness-park/
p719
aVhttp://www.traveltex.com/activities/frisch-auf-valley-country-club/
p720
aVhttp://www.traveltex.com/activities/frontera-audubon/
p721
aVhttp://www.traveltex.com/activities/frontier-times-museum/
p722
aVhttp://www.traveltex.com/activities/frontiers-of-flight-museum/
p723
aVhttp://www.traveltex.com/activities/fulton-mansion-state-historic-site/
p724
aVhttp://www.traveltex.com/activities/fun-city-golf-center/
p725
aVhttp://www.traveltex.com/activities/gaines-county-golf-course/
p726
aVhttp://www.traveltex.com/activities/gaines-county-museum/
p727
aVhttp://www.traveltex.com/activities/gainesville-golf-course/
p728
aVhttp://www.traveltex.com/activities/galleries-at-sunset-center/
p729
aVhttp://www.traveltex.com/activities/the-gallery-at-uta/
p730
aVhttp://www.traveltex.com/activities/galveston-country-club/
p731
aVhttp://www.traveltex.com/activities/galveston-county-historical-museum/
p732
aVhttp://www.traveltex.com/activities/galveston-island-beach/
p733
aVhttp://www.traveltex.com/activities/galveston-island-state-park/
p734
aVhttp://www.traveltex.com/activities/galveston-railroad-museum/
p735
aVhttp://www.traveltex.com/activities/garner-state-park/
p736
aVhttp://www.traveltex.com/activities/garten-verein/
p737
aVhttp://www.traveltex.com/activities/garza-county-historical-museum/
p738
aVhttp://www.traveltex.com/activities/gaslight-dinner-theatre/
p739
aVhttp://www.traveltex.com/activities/gaston-museum-(1)/
p740
aVhttp://www.traveltex.com/activities/gatesville-country-club/
p741
aVhttp://www.traveltex.com/activities/gateway-hills-golf-club-at-lackland-air-force-base/
p742
aVhttp://www.traveltex.com/activities/gator-country-adventure-park/
p743
aVhttp://www.traveltex.com/activities/gene-howe-wildlife-management-area/
p744
aVhttp://www.traveltex.com/activities/george-bush-presidential-library-and-museum/
p745
aVhttp://www.traveltex.com/activities/george-hw-bush-home/
p746
aVhttp://www.traveltex.com/activities/george-observatory/
p747
aVhttp://www.traveltex.com/activities/george-ranch-historical-park/
p748
aVhttp://www.traveltex.com/activities/george-w-bush-childhood-home/
p749
aVhttp://www.traveltex.com/activities/george-washington-carver-museum-cultural-center/
p750
aVhttp://www.traveltex.com/activities/georgetown-country-club/
p751
aVhttp://www.traveltex.com/activities/georgia-monument/
p752
aVhttp://www.traveltex.com/activities/geraldine-d-humphreys-cultural-center/
p753
aVhttp://www.traveltex.com/activities/gibbspowell-house/
p754
aVhttp://www.traveltex.com/activities/giddings-country-club/
p755
aVhttp://www.traveltex.com/activities/giddings-public-library-and-cultural-center/
p756
aVhttp://www.traveltex.com/activities/gilberts-fenton-art-glass-and-collectibles-museum/
p757
aVhttp://www.traveltex.com/activities/gillespie-county-country-schools-driving-trail/
p758
aVhttp://www.traveltex.com/activities/ginocchio-national-historic-district/
p759
aVhttp://www.traveltex.com/activities/gladewater-saturday-night-opry/
p760
aVhttp://www.traveltex.com/activities/gladys-porter-zoo/
p761
aVhttp://www.traveltex.com/activities/glen-garden-golf-and-country-club/
p762
aVhttp://www.traveltex.com/activities/glenbrook-golf-course/
p763
aVhttp://www.traveltex.com/activities/gleneagles-country-club-kings-course/
p764
aVhttp://www.traveltex.com/activities/globe-of-the-great-southwest/
p765
aVhttp://www.traveltex.com/activities/goldthwaite-municipal-golf-course/
p766
aVhttp://www.traveltex.com/activities/golf-club-at-castle-hills/
p767
aVhttp://www.traveltex.com/activities/golf-club-at-champions-circle/
p768
aVhttp://www.traveltex.com/activities/golf-club-at-cinco-ranch/
p769
aVhttp://www.traveltex.com/activities/golf-club-at-crown-valley/
p770
aVhttp://www.traveltex.com/activities/golf-club-at-fossil-creek/
p771
aVhttp://www.traveltex.com/activities/golf-club-at-mckinney/
p772
aVhttp://www.traveltex.com/activities/golf-club-at-twin-creeks/
p773
aVhttp://www.traveltex.com/activities/golf-club-of-dallas/
p774
aVhttp://www.traveltex.com/activities/golf-club-of-texas-at-briggs-ranch/
p775
aVhttp://www.traveltex.com/activities/golfcrest-country-club/
p776
aVhttp://www.traveltex.com/activities/goliad-golf-club/
p777
aVhttp://www.traveltex.com/activities/goliad-state-park-and-historic-site/
p778
aVhttp://www.traveltex.com/activities/gonzales-memorial-museum/
p779
aVhttp://www.traveltex.com/activities/gonzales-pioneer-village-living-history-center/
p780
aVhttp://www.traveltex.com/activities/goodmanlegrand-house-museum/
p781
aVhttp://www.traveltex.com/activities/goose-creek-country-club/
p782
aVhttp://www.traveltex.com/activities/goose-island-state-park/
p783
aVhttp://www.traveltex.com/activities/government-canyon-state-natural-area/
p784
aVhttp://www.traveltex.com/activities/governor-jim-hogg-city-park/
p785
aVhttp://www.traveltex.com/activities/gowns-of-the-first-ladies-of-texas/
p786
aVhttp://www.traveltex.com/activities/grace-armantrout-museum/
p787
aVhttp://www.traveltex.com/activities/grace-episcopal-church/
p788
aVhttp://www.traveltex.com/activities/graham-country-club/
p789
aVhttp://www.traveltex.com/activities/granbury-boardwalk/
p790
aVhttp://www.traveltex.com/activities/granbury-country-club/
p791
aVhttp://www.traveltex.com/activities/granbury-ghosts-and-legends-tour/
p792
aVhttp://www.traveltex.com/activities/grand-1894-opera-house/
p793
aVhttp://www.traveltex.com/activities/grand-prairie-airhogs-baseball/
p794
aVhttp://www.traveltex.com/activities/grand-saline-museumsalt-palace/
p795
aVhttp://www.traveltex.com/activities/grand-theatre-tour/
p796
aVhttp://www.traveltex.com/activities/grapevine-golf-course-bluebonnet-course/
p797
aVhttp://www.traveltex.com/activities/grapevine-golf-course-mockingbird-course/
p798
aVhttp://www.traveltex.com/activities/grapevine-golf-course-pecan-course/
p799
aVhttp://www.traveltex.com/activities/grapevine-historical-museum/
p800
aVhttp://www.traveltex.com/activities/grapevine-opry/
p801
aVhttp://www.traveltex.com/activities/grapevine-wine-tours/
p802
aVhttp://www.traveltex.com/activities/grave-of-col-james-w-fannin-jr-and-men/
p803
aVhttp://www.traveltex.com/activities/grayson-college-golf-course/
p804
aVhttp://www.traveltex.com/activities/grayson-county-frontier-village/
p805
aVhttp://www.traveltex.com/activities/great-hills-country-club/
p806
aVhttp://www.traveltex.com/activities/great-southwest-golf-club/
p807
aVhttp://www.traveltex.com/activities/the-great-storm/
p808
aVhttp://www.traveltex.com/activities/greatwood-golf-club/
p809
aVhttp://www.traveltex.com/activities/green-tree-country-club-east-course/
p810
aVhttp://www.traveltex.com/activities/greenbrier-golf-club/
p811
aVhttp://www.traveltex.com/activities/gregg-county-historical-museum/
p812
aVhttp://www.traveltex.com/activities/grimes-county-courthouse/
p813
aVhttp://www.traveltex.com/activities/gruene-historic-district/
p814
aVhttp://www.traveltex.com/activities/guadalupe-cultural-arts-center/
p815
aVhttp://www.traveltex.com/activities/guadalupe-mountains-national-park/
p816
aVhttp://www.traveltex.com/activities/guadalupe-river-state-park/
p817
aVhttp://www.traveltex.com/activities/guardian-angel-catholic-church/
p818
aVhttp://www.traveltex.com/activities/guenther-house/
p819
aVhttp://www.traveltex.com/activities/guess-nature-trail/
p820
aVhttp://www.traveltex.com/activities/the-gulf-coast-bird-observatory/
p821
aVhttp://www.traveltex.com/activities/gulf-coast-speedway/
p822
aVhttp://www.traveltex.com/activities/gulf-greyhound-park/
p823
aVhttp://www.traveltex.com/activities/gulf-greyhound-park-(1)/
p824
aVhttp://www.traveltex.com/activities/gulf-winds-golf-course-at-corpus-christi-naval-air-station/
p825
aVhttp://www.traveltex.com/activities/gus-engeling-wildlife-management-area/
p826
aVhttp://www.traveltex.com/activities/gus-wortham-park-golf-course/
p827
aVhttp://www.traveltex.com/activities/hackberry-creek-country-club/
p828
aVhttp://www.traveltex.com/activities/hagerman-national-wildlife-refuge-(3)/
p829
aVhttp://www.traveltex.com/activities/hale-county-farm-and-ranch-museum/
p830
aVhttp://www.traveltex.com/activities/haley-library-history-center/
p831
aVhttp://www.traveltex.com/activities/halfmoon-reef-lighthouse/
p832
aVhttp://www.traveltex.com/activities/hall-county-museum/
p833
aVhttp://www.traveltex.com/activities/hall-of-state/
p834
aVhttp://www.traveltex.com/activities/hallettsville-golf-course/
p835
aVhttp://www.traveltex.com/activities/hamilton-county-courthouse/
p836
aVhttp://www.traveltex.com/activities/hamilton-county-museum/
p837
aVhttp://www.traveltex.com/activities/hamilton-pool-nature-preserve/
p838
aVhttp://www.traveltex.com/activities/hancock-golf-course/
p839
aVhttp://www.traveltex.com/activities/hancock-park-golf-course/
p840
aVhttp://www.traveltex.com/activities/hangar-10-flying-museum/
p841
aVhttp://www.traveltex.com/activities/hangar-25-air-museum/
p842
aVhttp://www.traveltex.com/activities/hank-haney-golf-ranch-at-vista-ridge/
p843
aVhttp://www.traveltex.com/activities/hanna-springs-sculpture-garden/
p844
aVhttp://www.traveltex.com/activities/hans-and-pat-suter-wildlife-refuge/
p845
aVhttp://www.traveltex.com/activities/hansen-shed/
p846
aVhttp://www.traveltex.com/activities/harbor-ferry/
p847
aVhttp://www.traveltex.com/activities/harbor-lakes-golf-club/
p848
aVhttp://www.traveltex.com/activities/harbor-playhouse/
p849
aVhttp://www.traveltex.com/activities/hardeman-county-museum/
p850
aVhttp://www.traveltex.com/activities/harlingen-arts-heritage-museum/
p851
aVhttp://www.traveltex.com/activities/harlingen-country-club/
p852
aVhttp://www.traveltex.com/activities/harlingen-heritage-trail/
p853
aVhttp://www.traveltex.com/activities/harlingen-public-library/
p854
aVhttp://www.traveltex.com/activities/harmony-hill-ghost-town/
p855
aVhttp://www.traveltex.com/activities/harper-pioneer-museum/
p856
aVhttp://www.traveltex.com/activities/harrington-house/
p857
aVhttp://www.traveltex.com/activities/harrisons-landing-peoples-street-thead/
p858
aVhttp://www.traveltex.com/activities/harry-ransom-center/
p859
aVhttp://www.traveltex.com/activities/harvey-house/
p860
aVhttp://www.traveltex.com/activities/hatch-bend-country-club/
p861
aVhttp://www.traveltex.com/activities/hawaiian-falls-waterpark/
p862
aVhttp://www.traveltex.com/activities/hawaiian-falls-waterpark-(1)/
p863
aVhttp://www.traveltex.com/activities/hawaiian-falls-waterparkwaco/
p864
aVhttp://www.traveltex.com/activities/hawks-creek-golf-club/
p865
aVhttp://www.traveltex.com/activities/heardcraig-house/
p866
aVhttp://www.traveltex.com/activities/hearne-golf-course/
p867
aVhttp://www.traveltex.com/activities/hearne-railroad-depot-museum-and-visitor-information-center/
p868
aVhttp://www.traveltex.com/activities/heart-of-texas-country-music-museum/
p869
aVhttp://www.traveltex.com/activities/heart-of-texas-historical-museum/
p870
aVhttp://www.traveltex.com/activities/heart-of-texas-junior-golf-foundation-executive-course/
p871
aVhttp://www.traveltex.com/activities/heart-of-texas-junior-golf-foundation-regulation-course/
p872
aVhttp://www.traveltex.com/activities/heart-of-west-texas-museum/
p873
aVhttp://www.traveltex.com/activities/hearthstone-country-club-horsepen-course/
p874
aVhttp://www.traveltex.com/activities/hearthstone-country-club-jackrabbit-course/
p875
aVhttp://www.traveltex.com/activities/hearthstone-country-club-wolf-corner-course/
p876
aVhttp://www.traveltex.com/activities/helen-lee-estate-daffodil-gardens/
p877
aVhttp://www.traveltex.com/activities/henderson-country-club/
p878
aVhttp://www.traveltex.com/activities/henderson-county-historical-museum/
p879
aVhttp://www.traveltex.com/activities/henkel-square-market/
p880
aVhttp://www.traveltex.com/activities/henry-homberg-golf-course/
p881
aVhttp://www.traveltex.com/activities/heritage-center-museum/
p882
aVhttp://www.traveltex.com/activities/heritage-center-of-cherokee-county/
p883
aVhttp://www.traveltex.com/activities/heritage-farmstead-museum-farrellwilson-farmstead/
p884
aVhttp://www.traveltex.com/activities/heritage-house/
p885
aVhttp://www.traveltex.com/activities/heritage-house-museum/
p886
aVhttp://www.traveltex.com/activities/heritage-house-museum-(1)/
p887
aVhttp://www.traveltex.com/activities/heritage-museum/
p888
aVhttp://www.traveltex.com/activities/heritage-museum-(1)/
p889
aVhttp://www.traveltex.com/activities/heritage-museum-(2)/
p890
aVhttp://www.traveltex.com/activities/heritage-museum-(3)/
p891
aVhttp://www.traveltex.com/activities/heritage-museum-of-montgomery-county/
p892
aVhttp://www.traveltex.com/activities/heritage-museum-of-the-texas-hill-country/
p893
aVhttp://www.traveltex.com/activities/heritage-park/
p894
aVhttp://www.traveltex.com/activities/heritage-park-(1)/
p895
aVhttp://www.traveltex.com/activities/heritage-park-(2)/
p896
aVhttp://www.traveltex.com/activities/heritage-park-(3)/
p897
aVhttp://www.traveltex.com/activities/heritage-parksanta-fe-park-museum/
p898
aVhttp://www.traveltex.com/activities/heritage-plaza/
p899
aVhttp://www.traveltex.com/activities/heritage-village-museum/
p900
aVhttp://www.traveltex.com/activities/hermann-park-golf-course/
p901
aVhttp://www.traveltex.com/activities/heron-lakes-golf-course/
p902
aVhttp://www.traveltex.com/activities/hickman-museum/
p903
aVhttp://www.traveltex.com/activities/hidden-creek-golf-course/
p904
aVhttp://www.traveltex.com/activities/hidden-hills-golf-course/
p905
aVhttp://www.traveltex.com/activities/hidden-oaks-golf-course/
p906
aVhttp://www.traveltex.com/activities/hidden-springs-golf-course/
p907
aVhttp://www.traveltex.com/activities/high-island-boy-scout-woods-and-smith-oaks-nature-sanctuaries/
p908
aVhttp://www.traveltex.com/activities/high-meadow-ranch-golf-club/
p909
aVhttp://www.traveltex.com/activities/highland-bayou-park/
p910
aVhttp://www.traveltex.com/activities/highland-lakes-caf-air-museum/
p911
aVhttp://www.traveltex.com/activities/highland-lakes-golf-club/
p912
aVhttp://www.traveltex.com/activities/highland-lakes-golf-course/
p913
aVhttp://www.traveltex.com/activities/hilbig-park/
p914
aVhttp://www.traveltex.com/activities/hill-country-arts-foundation/
p915
aVhttp://www.traveltex.com/activities/hill-country-flyer-(2)/
p916
aVhttp://www.traveltex.com/activities/hill-country-state-natural-area/
p917
aVhttp://www.traveltex.com/activities/hill-county-cell-block-museum/
p918
aVhttp://www.traveltex.com/activities/hill-county-courthouse/
p919
aVhttp://www.traveltex.com/activities/hillcrest-country-club/
p920
aVhttp://www.traveltex.com/activities/hillcrest-country-club-(1)/
p921
aVhttp://www.traveltex.com/activities/hillcrest-golf-club/
p922
aVhttp://www.traveltex.com/activities/hills-country-club-flintrock-falls-course/
p923
aVhttp://www.traveltex.com/activities/hills-country-club-hills-course/
p924
aVhttp://www.traveltex.com/activities/hills-of-cove-golf-course/
p925
aVhttp://www.traveltex.com/activities/hillsboro-country-club/
p926
aVhttp://www.traveltex.com/activities/hilton-museum/
p927
aVhttp://www.traveltex.com/activities/historic-brownsville-museum/
p928
aVhttp://www.traveltex.com/activities/historic-buildings/
p929
aVhttp://www.traveltex.com/activities/historic-cemeteries/
p930
aVhttp://www.traveltex.com/activities/historic-cemetery-(1)/
p931
aVhttp://www.traveltex.com/activities/historic-city-cemetery/
p932
aVhttp://www.traveltex.com/activities/historic-district/
p933
aVhttp://www.traveltex.com/activities/historic-ditch-walk/
p934
aVhttp://www.traveltex.com/activities/historic-downtown-(1)/
p935
aVhttp://www.traveltex.com/activities/historic-downtown-(2)/
p936
aVhttp://www.traveltex.com/activities/historic-downtown-(3)/
p937
aVhttp://www.traveltex.com/activities/historic-downtown-district/
p938
aVhttp://www.traveltex.com/activities/historic-downtown-district-(1)/
p939
aVhttp://www.traveltex.com/activities/historic-fort-stockton/
p940
aVhttp://www.traveltex.com/activities/historic-homes/
p941
aVhttp://www.traveltex.com/activities/historic-homes-(1)/
p942
aVhttp://www.traveltex.com/activities/historic-homes-(2)/
p943
aVhttp://www.traveltex.com/activities/historic-homes-(3)/
p944
aVhttp://www.traveltex.com/activities/historic-homes-(4)/
p945
aVhttp://www.traveltex.com/activities/historic-homes-driving-tour/
p946
aVhttp://www.traveltex.com/activities/historic-homes-tour/
p947
aVhttp://www.traveltex.com/activities/historic-industry-gin/
p948
aVhttp://www.traveltex.com/activities/historic-inns/
p949
aVhttp://www.traveltex.com/activities/historic-inns-(2)/
p950
aVhttp://www.traveltex.com/activities/historic-jefferson-hotel/
p951
aVhttp://www.traveltex.com/activities/historic-jefferson-railway/
p952
aVhttp://www.traveltex.com/activities/historic-murals/
p953
aVhttp://www.traveltex.com/activities/historic-onion-shed/
p954
aVhttp://www.traveltex.com/activities/historic-orientsanta-fe-depot/
p955
aVhttp://www.traveltex.com/activities/historic-pavilion-and-marker/
p956
aVhttp://www.traveltex.com/activities/historic-railroad-depot/
p957
aVhttp://www.traveltex.com/activities/historic-railyard-district/
p958
aVhttp://www.traveltex.com/activities/historic-route-66-old-san-jacinto/
p959
aVhttp://www.traveltex.com/activities/historic-sites/
p960
aVhttp://www.traveltex.com/activities/historic-tours/
p961
aVhttp://www.traveltex.com/activities/historic-upshur-museum/
p962
aVhttp://www.traveltex.com/activities/historic-walking-tour/
p963
aVhttp://www.traveltex.com/activities/historical-driving-tours/
p964
aVhttp://www.traveltex.com/activities/historical-home-tours/
p965
aVhttp://www.traveltex.com/activities/historical-house-museum-complex/
p966
aVhttp://www.traveltex.com/activities/historical-park/
p967
aVhttp://www.traveltex.com/activities/historical-sites/
p968
aVhttp://www.traveltex.com/activities/historical-tours/
p969
aVhttp://www.traveltex.com/activities/historical-trail/
p970
aVhttp://www.traveltex.com/activities/historical-walking-and-driving-tour/
p971
aVhttp://www.traveltex.com/activities/the-history-center/
p972
aVhttp://www.traveltex.com/activities/hogan-park-golf-course-quail-course/
p973
aVhttp://www.traveltex.com/activities/holiday-hills-country-club/
p974
aVhttp://www.traveltex.com/activities/hollytree-country-club/
p975
aVhttp://www.traveltex.com/activities/holocaust-museum-houston/
p976
aVhttp://www.traveltex.com/activities/homestead-heritage-traditional-crafts-village/
p977
aVhttp://www.traveltex.com/activities/hondo-golf-course/
p978
aVhttp://www.traveltex.com/activities/honey-creek-state-natural-area/
p979
aVhttp://www.traveltex.com/activities/honors-golf-club-dallas/
p980
aVhttp://www.traveltex.com/activities/hopkins-county-museum-and-heritage-park/
p981
aVhttp://www.traveltex.com/activities/horse-country-tours/
p982
aVhttp://www.traveltex.com/activities/horses-on-the-beach/
p983
aVhttp://www.traveltex.com/activities/horses-on-the-beach-1/
p984
aVhttp://www.traveltex.com/activities/horseshoe-bend-country-club/
p985
aVhttp://www.traveltex.com/activities/hotel-turkey/
p986
aVhttp://www.traveltex.com/activities/house-of-the-seasons/
p987
aVhttp://www.traveltex.com/activities/houston-arboretum-and-nature-center/
p988
aVhttp://www.traveltex.com/activities/houston-center-for-contemporary-craft/
p989
aVhttp://www.traveltex.com/activities/houston-country-club/
p990
aVhttp://www.traveltex.com/activities/houston-county-visitors-center-museum/
p991
aVhttp://www.traveltex.com/activities/houston-fire-museum/
p992
aVhttp://www.traveltex.com/activities/houston-garden-center/
p993
aVhttp://www.traveltex.com/activities/houston-museum-of-natural-science/
p994
aVhttp://www.traveltex.com/activities/houston-museum-of-natural-science-at-sugar-land/
p995
aVhttp://www.traveltex.com/activities/houston-national-golf-club/
p996
aVhttp://www.traveltex.com/activities/houston-zoo/
p997
aVhttp://www.traveltex.com/activities/houstonian-golf-and-country-club/
p998
aVhttp://www.traveltex.com/activities/howard-house-museum/
p999
aVhttp://www.traveltex.com/activities/howellsickles-studio/
p1000
aVhttp://www.traveltex.com/activities/hubbard-museum/
p1001
aVhttp://www.traveltex.com/activities/hueco-tanks-state-historic-site/
p1002
aVhttp://www.traveltex.com/activities/humble-oil-patch-golf-center/
p1003
aVhttp://www.traveltex.com/activities/huntsville-state-park/
p1004
aVhttp://www.traveltex.com/activities/hurricane-alley-waterpark/
p1005
aVhttp://www.traveltex.com/activities/hutchinson-county-historical-museum/
p1006
aVhttp://www.traveltex.com/activities/hyatt-regency-hill-country-resort-creeks-course/
p1007
aVhttp://www.traveltex.com/activities/hyde-park-tour/
p1008
aVhttp://www.traveltex.com/activities/icehouse-museum-and-cultural-center-inc/
p1009
aVhttp://www.traveltex.com/activities/imax/
p1010
aVhttp://www.traveltex.com/activities/independence-golf-course/
p1011
aVhttp://www.traveltex.com/activities/indian-cliffs-ranch/
p1012
aVhttp://www.traveltex.com/activities/indian-creek-golf-club-creeks-course/
p1013
aVhttp://www.traveltex.com/activities/indian-hills-country-club/
p1014
aVhttp://www.traveltex.com/activities/indian-lodge/
p1015
aVhttp://www.traveltex.com/activities/indian-point-park-and-pier/
p1016
aVhttp://www.traveltex.com/activities/inks-lake-state-park-(1)/
p1017
aVhttp://www.traveltex.com/activities/inn-on-the-river/
p1018
aVhttp://www.traveltex.com/activities/international-bowling-museum-and-hall-of-fame/
p1019
aVhttp://www.traveltex.com/activities/international-exotic-feline-sanctuary/
p1020
aVhttp://www.traveltex.com/activities/international-museum-of-art/
p1021
aVhttp://www.traveltex.com/activities/international-museum-of-art-science/
p1022
aVhttp://www.traveltex.com/activities/interurban-railway-station-museum/
p1023
aVhttp://www.traveltex.com/activities/iraan-golf-club/
p1024
aVhttp://www.traveltex.com/activities/iraan-museum/
p1025
aVhttp://www.traveltex.com/activities/iron-horse-golf-course/
p1026
aVhttp://www.traveltex.com/activities/iron-oaks-golf-club/
p1027
aVhttp://www.traveltex.com/activities/isaac-mccormick-pioneer-cottage/
p1028
aVhttp://www.traveltex.com/activities/isla-blanca-park/
p1029
aVhttp://www.traveltex.com/activities/iwo-jima-memorial-and-museum/
p1030
aVhttp://www.traveltex.com/activities/j-wayne-stark-university-center-galleries/
p1031
aVhttp://www.traveltex.com/activities/jb-buchanan-windmill-park/
p1032
aVhttp://www.traveltex.com/activities/jr-curtis-memorial-garden-for-the-blind/
p1033
aVhttp://www.traveltex.com/activities/jack-county-museum/
p1034
aVhttp://www.traveltex.com/activities/jacksboro-country-club/
p1035
aVhttp://www.traveltex.com/activities/jackson-plantation-archeological-site/
p1036
aVhttp://www.traveltex.com/activities/james-connally-municipal-golf-course/
p1037
aVhttp://www.traveltex.com/activities/james-r-fox-memorial/
p1038
aVhttp://www.traveltex.com/activities/janey-slaughter-briscoe-opera-house/
p1039
aVhttp://www.traveltex.com/activities/japanese-garden/
p1040
aVhttp://www.traveltex.com/activities/japanese-garden-(1)/
p1041
aVhttp://www.traveltex.com/activities/jasper-country-club/
p1042
aVhttp://www.traveltex.com/activities/jasper-county-historical-museum/
p1043
aVhttp://www.traveltex.com/activities/jaspers-firemans-museum/
p1044
aVhttp://www.traveltex.com/activities/jay-gould-private-railroad-car/
p1045
aVhttp://www.traveltex.com/activities/jays-cafe-museum/
p1046
aVhttp://www.traveltex.com/activities/jefferson-carnegie-library/
p1047
aVhttp://www.traveltex.com/activities/jefferson-historical-society-museum/
p1048
aVhttp://www.traveltex.com/activities/jefferson-theatre/
p1049
aVhttp://www.traveltex.com/activities/jersey-meadow-golf-course/
p1050
aVhttp://www.traveltex.com/activities/jesse-h-jones-park-nature-center/
p1051
aVhttp://www.traveltex.com/activities/jewett-historical-museum/
p1052
aVhttp://www.traveltex.com/activities/jim-hogg-historic-park/
p1053
aVhttp://www.traveltex.com/activities/jimmy-clayroy-kizer-golf-complex-clay-course/
p1054
aVhttp://www.traveltex.com/activities/jimmy-clayroy-kizer-golf-complex-kizer-course/
p1055
aVhttp://www.traveltex.com/activities/john-c-beasley-golf-course/
p1056
aVhttp://www.traveltex.com/activities/john-e-conner-museum/
p1057
aVhttp://www.traveltex.com/activities/john-f-kennedy-memorial/
p1058
aVhttp://www.traveltex.com/activities/john-jay-french-house-museum/
p1059
aVhttp://www.traveltex.com/activities/john-nance-garner-museum/
p1060
aVhttp://www.traveltex.com/activities/john-p-mcgovern-museum-of-health-medical-science/
p1061
aVhttp://www.traveltex.com/activities/john-pitman-municipal-golf-course/
p1062
aVhttp://www.traveltex.com/activities/johnson-county-courthouse/
p1063
aVhttp://www.traveltex.com/activities/jonas-davis-cabin/
p1064
aVhttp://www.traveltex.com/activities/jones-state-forest/
p1065
aVhttp://www.traveltex.com/activities/jones-state-forest-(1)/
p1066
aVhttp://www.traveltex.com/activities/joyland-amusement-park/
p1067
aVhttp://www.traveltex.com/activities/juan-seguin-burial-site/
p1068
aVhttp://www.traveltex.com/activities/juan-seguin-statue/
p1069
aVhttp://www.traveltex.com/activities/julian-bivins-museum/
p1070
aVhttp://www.traveltex.com/activities/junction-golf-course/
p1071
aVhttp://www.traveltex.com/activities/jw-marriott-san-antonio-hill-country-resort-spa-att-canyons-course/
p1072
aVhttp://www.traveltex.com/activities/jw-marriott-san-antonio-hill-country-resort-spa-att-oaks-course/
p1073
aVhttp://www.traveltex.com/activities/karnes-county-museum/
p1074
aVhttp://www.traveltex.com/activities/katy-depot-museum/
p1075
aVhttp://www.traveltex.com/activities/katy-heritage-museum/
p1076
aVhttp://www.traveltex.com/activities/katy-museum/
p1077
aVhttp://www.traveltex.com/activities/katy-railroad-park/
p1078
aVhttp://www.traveltex.com/activities/katy-vfw-memorial-museum/
p1079
aVhttp://www.traveltex.com/activities/keeton-park-golf-course/
p1080
aVhttp://www.traveltex.com/activities/kell-house/
p1081
aVhttp://www.traveltex.com/activities/kemah-boardwalk/
p1082
aVhttp://www.traveltex.com/activities/kemp-center-for-the-arts/
p1083
aVhttp://www.traveltex.com/activities/kenedy-ranch-museum-of-south-texas/
p1084
aVhttp://www.traveltex.com/activities/kerr-arts-and-cultural-center/
p1085
aVhttp://www.traveltex.com/activities/kerrvilleschreiner-park/
p1086
aVhttp://www.traveltex.com/activities/keystone-heritage-park/
p1087
aVhttp://www.traveltex.com/activities/keystone-square-museum/
p1088
aVhttp://www.traveltex.com/activities/kickapoo-cavern-state-park/
p1089
aVhttp://www.traveltex.com/activities/killer-bee/
p1090
aVhttp://www.traveltex.com/activities/killough-monument/
p1091
aVhttp://www.traveltex.com/activities/kimbell-art-museum/
p1092
aVhttp://www.traveltex.com/activities/kimble-county-historical-museum/
p1093
aVhttp://www.traveltex.com/activities/king-ranch/
p1094
aVhttp://www.traveltex.com/activities/king-ranch-museum/
p1095
aVhttp://www.traveltex.com/activities/king-ranch-saddle-shop/
p1096
aVhttp://www.traveltex.com/activities/king-william-district/
p1097
aVhttp://www.traveltex.com/activities/kingwood-cove-golf-club/
p1098
aVhttp://www.traveltex.com/activities/kinnes-jewelers-museum/
p1099
aVhttp://www.traveltex.com/activities/kirby-state-forest/
p1100
aVhttp://www.traveltex.com/activities/knolle-doctor-office/
p1101
aVhttp://www.traveltex.com/activities/knox-county-veterans-memorial/
p1102
aVhttp://www.traveltex.com/activities/knoxhenderson-entertainment-district/
p1103
aVhttp://www.traveltex.com/activities/krause-springs/
p1104
aVhttp://www.traveltex.com/activities/kwahadi-museum-of-the-american-indian/
p1105
aVhttp://www.traveltex.com/activities/l-e-ramey-golf-course/
p1106
aVhttp://www.traveltex.com/activities/la-lomita-chapel/
p1107
aVhttp://www.traveltex.com/activities/la-maison-des-acadiens-museum/
p1108
aVhttp://www.traveltex.com/activities/la-paz-county-historical-museum/
p1109
aVhttp://www.traveltex.com/activities/la-salle-monument-(1)/
p1110
aVhttp://www.traveltex.com/activities/la-torretta-lake-resort-spa/
p1111
aVhttp://www.traveltex.com/activities/la-villita/
p1112
aVhttp://www.traveltex.com/activities/lady-bird-johnson-municipal-golf-course/
p1113
aVhttp://www.traveltex.com/activities/lady-bird-johnson-park/
p1114
aVhttp://www.traveltex.com/activities/lady-bird-johnson-wildflower-center/
p1115
aVhttp://www.traveltex.com/activities/lafayette-street-vintage-vehicles-car-museum/
p1116
aVhttp://www.traveltex.com/activities/lago-vista-golf-club/
p1117
aVhttp://www.traveltex.com/activities/laguna-atascosa-national-wildlife-refuge-(1)/
p1118
aVhttp://www.traveltex.com/activities/laguna-madre/
p1119
aVhttp://www.traveltex.com/activities/lake-arlington-golf-course/
p1120
aVhttp://www.traveltex.com/activities/lake-arrowhead-state-park/
p1121
aVhttp://www.traveltex.com/activities/lake-bob-sandlin-state-park/
p1122
aVhttp://www.traveltex.com/activities/lake-brownwood-state-park/
p1123
aVhttp://www.traveltex.com/activities/lake-casa-blanca-international-state-park/
p1124
aVhttp://www.traveltex.com/activities/lake-cisco-country-club/
p1125
aVhttp://www.traveltex.com/activities/lake-colorado-city-state-park/
p1126
aVhttp://www.traveltex.com/activities/lake-conroe-park/
p1127
aVhttp://www.traveltex.com/activities/lake-corpus-christi-state-park-(1)/
p1128
aVhttp://www.traveltex.com/activities/lake-gilmer/
p1129
aVhttp://www.traveltex.com/activities/lake-houston-wilderness-park/
p1130
aVhttp://www.traveltex.com/activities/lake-jackson-historical-museum/
p1131
aVhttp://www.traveltex.com/activities/lake-livingston-state-park/
p1132
aVhttp://www.traveltex.com/activities/lake-meredith-aquatic-and-wildlife-museum/
p1133
aVhttp://www.traveltex.com/activities/lake-meredith-national-recreation-area/
p1134
aVhttp://www.traveltex.com/activities/lake-mineral-wells-state-park-trailway/
p1135
aVhttp://www.traveltex.com/activities/lake-park-golf-club/
p1136
aVhttp://www.traveltex.com/activities/lake-rita-blanca/
p1137
aVhttp://www.traveltex.com/activities/lake-somerville-state-park-and-trailway/
p1138
aVhttp://www.traveltex.com/activities/lake-sweetwater-municipal-golf-course/
p1139
aVhttp://www.traveltex.com/activities/lake-tawakoni-state-park/
p1140
aVhttp://www.traveltex.com/activities/lake-whitney-golf-club/
p1141
aVhttp://www.traveltex.com/activities/lake-whitney-state-park-(2)/
p1142
aVhttp://www.traveltex.com/activities/lakeridge-country-club/
p1143
aVhttp://www.traveltex.com/activities/lakeside-country-club/
p1144
aVhttp://www.traveltex.com/activities/lakeside-country-club-(1)/
p1145
aVhttp://www.traveltex.com/activities/lakeway-golf-club-live-oak-course/
p1146
aVhttp://www.traveltex.com/activities/lakeway-golf-club-yaupon-course/
p1147
aVhttp://www.traveltex.com/activities/lakewood-country-club/
p1148
aVhttp://www.traveltex.com/activities/lamar-bruni-vergara-environmental-science-center/
p1149
aVhttp://www.traveltex.com/activities/lamar-bruni-vergara-planetarium/
p1150
aVhttp://www.traveltex.com/activities/lamar-county-historical-museum/
p1151
aVhttp://www.traveltex.com/activities/lamesa-country-club/
p1152
aVhttp://www.traveltex.com/activities/lancaster-hill/
p1153
aVhttp://www.traveltex.com/activities/landa-park/
p1154
aVhttp://www.traveltex.com/activities/landa-park-municipal-golf-course/
p1155
aVhttp://www.traveltex.com/activities/landmark-inn-state-historic-site/
p1156
aVhttp://www.traveltex.com/activities/landmark-museum/
p1157
aVhttp://www.traveltex.com/activities/laredo-center-for-the-arts/
p1158
aVhttp://www.traveltex.com/activities/laredo-country-club/
p1159
aVhttp://www.traveltex.com/activities/larkin-newton-cabin/
p1160
aVhttp://www.traveltex.com/activities/las-colinas-country-club/
p1161
aVhttp://www.traveltex.com/activities/las-majadas-pond/
p1162
aVhttp://www.traveltex.com/activities/last-frontier-museum/
p1163
aVhttp://www.traveltex.com/activities/latino-cultural-center/
p1164
aVhttp://www.traveltex.com/activities/lavaca-county-courthouse/
p1165
aVhttp://www.traveltex.com/activities/lavaca-historical-museum/
p1166
aVhttp://www.traveltex.com/activities/law-enforcement-museum/
p1167
aVhttp://www.traveltex.com/activities/lbj-museum-of-san-marcos/
p1168
aVhttp://www.traveltex.com/activities/lcra-matagorda-bay-nature-park/
p1169
aVhttp://www.traveltex.com/activities/lcra-mckinney-roughs-nature-park/
p1170
aVhttp://www.traveltex.com/activities/leaning-pine-golf-course-at-laughlin-air-force-base/
p1171
aVhttp://www.traveltex.com/activities/ledbetter-picket-house/
p1172
aVhttp://www.traveltex.com/activities/lee-county-courthouse/
p1173
aVhttp://www.traveltex.com/activities/lee-county-heritage-center/
p1174
aVhttp://www.traveltex.com/activities/lefty-frizzell-country-music-museum/
p1175
aVhttp://www.traveltex.com/activities/legacy-ridge-country-club/
p1176
aVhttp://www.traveltex.com/activities/legendary-oaks-golf-course/
p1177
aVhttp://www.traveltex.com/activities/legends-country-club/
p1178
aVhttp://www.traveltex.com/activities/legends-golf-course-on-lake-lbj/
p1179
aVhttp://www.traveltex.com/activities/legoland-discovery-center/
p1180
aVhttp://www.traveltex.com/activities/lela-latch-lloyd-museum/
p1181
aVhttp://www.traveltex.com/activities/leon-county-art-trail/
p1182
aVhttp://www.traveltex.com/activities/leon-county-courthouse/
p1183
aVhttp://www.traveltex.com/activities/leonabelle-turnbull-birding-center/
p1184
aVhttp://www.traveltex.com/activities/leonard-historical-museum/
p1185
aVhttp://www.traveltex.com/activities/levelland-country-club/
p1186
aVhttp://www.traveltex.com/activities/lexington-log-cabins-heritage-center/
p1187
aVhttp://www.traveltex.com/activities/liberty-opry-on-the-square/
p1188
aVhttp://www.traveltex.com/activities/liberty-park/
p1189
aVhttp://www.traveltex.com/activities/library-and-museum/
p1190
aVhttp://www.traveltex.com/activities/liendo-plantation/
p1191
aVhttp://www.traveltex.com/activities/lighthouse-beach-bird-sanctuary/
p1192
aVhttp://www.traveltex.com/activities/lighthouse-lakes-paddling-trail/
p1193
aVhttp://www.traveltex.com/activities/limestone-county-historical-museum/
p1194
aVhttp://www.traveltex.com/activities/lindemann-store-museum/
p1195
aVhttp://www.traveltex.com/activities/lindemannott-house/
p1196
aVhttp://www.traveltex.com/activities/lindheimer-home/
p1197
aVhttp://www.traveltex.com/activities/lindsey-railroad-museum/
p1198
aVhttp://www.traveltex.com/activities/links-at-west-fork/
p1199
aVhttp://www.traveltex.com/activities/lions-municipal-golf-course/
p1200
aVhttp://www.traveltex.com/activities/lipantitlan-state-historic-site/
p1201
aVhttp://www.traveltex.com/activities/little-chapelinthewoods/
p1202
aVhttp://www.traveltex.com/activities/little-graceland/
p1203
aVhttp://www.traveltex.com/activities/littlefield-country-club/
p1204
aVhttp://www.traveltex.com/activities/littlefield-landsduggan-house-museum/
p1205
aVhttp://www.traveltex.com/activities/live-oak-art-center/
p1206
aVhttp://www.traveltex.com/activities/llano-county-museum/
p1207
aVhttp://www.traveltex.com/activities/llano-estacado-tourist-marker/
p1208
aVhttp://www.traveltex.com/activities/llano-fine-arts-guild-inc/
p1209
aVhttp://www.traveltex.com/activities/llano-grande-golf-course/
p1210
aVhttp://www.traveltex.com/activities/llano-red-top-jail/
p1211
aVhttp://www.traveltex.com/activities/llano-river-golf-course/
p1212
aVhttp://www.traveltex.com/activities/lockhart-state-park/
p1213
aVhttp://www.traveltex.com/activities/lockhart-state-park-golf-course/
p1214
aVhttp://www.traveltex.com/activities/log-cabin-village/
p1215
aVhttp://www.traveltex.com/activities/london-museum-and-tea-room/
p1216
aVhttp://www.traveltex.com/activities/lone-cedar-golf-club/
p1217
aVhttp://www.traveltex.com/activities/lone-star-flight-museum-and-texas-hall-of-fame/
p1218
aVhttp://www.traveltex.com/activities/lone-star-golf-club/
p1219
aVhttp://www.traveltex.com/activities/lone-star-hiking-trail/
p1220
aVhttp://www.traveltex.com/activities/lone-star-motorcycle-museum/
p1221
aVhttp://www.traveltex.com/activities/lone-star-motorsports-park/
p1222
aVhttp://www.traveltex.com/activities/lone-star-park-at-grand-prairie/
p1223
aVhttp://www.traveltex.com/activities/lone-star-riverboat/
p1224
aVhttp://www.traveltex.com/activities/long-island-village-golf-course/
p1225
aVhttp://www.traveltex.com/activities/longsmith-cottage/
p1226
aVhttp://www.traveltex.com/activities/longhorn-cavern-state-park-(1)/
p1227
aVhttp://www.traveltex.com/activities/longhorn-museum/
p1228
aVhttp://www.traveltex.com/activities/longview-country-club/
p1229
aVhttp://www.traveltex.com/activities/longview-museum-of-fine-arts/
p1230
aVhttp://www.traveltex.com/activities/los-ebanos-ferry/
p1231
aVhttp://www.traveltex.com/activities/los-ebanos-golf-course/
p1232
aVhttp://www.traveltex.com/activities/los-lagos-golf-club/
p1233
aVhttp://www.traveltex.com/activities/los-portales-tourist-museum-and-information-center/
p1234
aVhttp://www.traveltex.com/activities/los-rios-country-club/
p1235
aVhttp://www.traveltex.com/activities/lost-creek-country-club/
p1236
aVhttp://www.traveltex.com/activities/lost-maples-state-natural-area/
p1237
aVhttp://www.traveltex.com/activities/lost-pines-golf-club-/
p1238
aVhttp://www.traveltex.com/activities/lost-valley-resort-golf-course/
p1239
aVhttp://www.traveltex.com/activities/louise-hopkins-underwood-center-for-the-arts/
p1240
aVhttp://www.traveltex.com/activities/loves-lookout-park/
p1241
aVhttp://www.traveltex.com/activities/lower-greenville/
p1242
aVhttp://www.traveltex.com/activities/lower-neches-wildlife-management-area-observation-platform/
p1243
aVhttp://www.traveltex.com/activities/lozano-golf-center/
p1244
aVhttp://www.traveltex.com/activities/lubbock-area-veterans-war-memorial/
p1245
aVhttp://www.traveltex.com/activities/the-lubbock-arts-alliance/
p1246
aVhttp://www.traveltex.com/activities/lubbock-country-club/
p1247
aVhttp://www.traveltex.com/activities/lubbock-lake-landmark/
p1248
aVhttp://www.traveltex.com/activities/luckenbach/
p1249
aVhttp://www.traveltex.com/activities/lufkin-country-club/
p1250
aVhttp://www.traveltex.com/activities/luling-golf-course/
p1251
aVhttp://www.traveltex.com/activities/lydia-ann-lighthouse/
p1252
aVhttp://www.traveltex.com/activities/lynchburg-ferry/
p1253
aVhttp://www.traveltex.com/activities/lyndon-b-johnson-library-and-museum/
p1254
aVhttp://www.traveltex.com/activities/lyndon-b-johnson-national-historical-park/
p1255
aVhttp://www.traveltex.com/activities/lyndon-b-johnson-national-historical-park-(1)/
p1256
aVhttp://www.traveltex.com/activities/lyndon-b-johnson-state-park-and-historic-site-(2)/
p1257
aVhttp://www.traveltex.com/activities/mackenzie-parkprairie-dog-town/
p1258
aVhttp://www.traveltex.com/activities/mackenzie-trail-monument/
p1259
aVhttp://www.traveltex.com/activities/madison-county-museum/
p1260
aVhttp://www.traveltex.com/activities/magnolia-creek-golf-club-england-course/
p1261
aVhttp://www.traveltex.com/activities/magnolia-creek-golf-club-ireland-course/
p1262
aVhttp://www.traveltex.com/activities/magnolia-creek-golf-club-scotland-course/
p1263
aVhttp://www.traveltex.com/activities/magnolia-ridge-country-club/
p1264
aVhttp://www.traveltex.com/activities/magnolia-station/
p1265
aVhttp://www.traveltex.com/activities/magoffin-home-state-historic-site/
p1266
aVhttp://www.traveltex.com/activities/main-street-initiative/
p1267
aVhttp://www.traveltex.com/activities/main-street-music-hall/
p1268
aVhttp://www.traveltex.com/activities/majestic-theatre/
p1269
aVhttp://www.traveltex.com/activities/majestic-theatre-(1)/
p1270
aVhttp://www.traveltex.com/activities/majorsparchman-farmstead/
p1271
aVhttp://www.traveltex.com/activities/mama-muriels-doll-museum/
p1272
aVhttp://www.traveltex.com/activities/mammoth-lake-scuba-park/
p1273
aVhttp://www.traveltex.com/activities/mansfield-historical-museum-heritage-center/
p1274
aVhttp://www.traveltex.com/activities/mansfield-national-golf-club/
p1275
aVhttp://www.traveltex.com/activities/marfa-presidio-county-museum/
p1276
aVhttp://www.traveltex.com/activities/marfa-municipal-golf-course/
p1277
aVhttp://www.traveltex.com/activities/marfa-mystery-lights-viewing-center/
p1278
aVhttp://www.traveltex.com/activities/market-house-museum/
p1279
aVhttp://www.traveltex.com/activities/market-square/
p1280
aVhttp://www.traveltex.com/activities/marlin-country-club/
p1281
aVhttp://www.traveltex.com/activities/marshall-depot-and-museum/
p1282
aVhttp://www.traveltex.com/activities/marshall-lakeside-country-club/
p1283
aVhttp://www.traveltex.com/activities/marshall-pottery-museum/
p1284
aVhttp://www.traveltex.com/activities/martin-and-frances-lehnis-railroad-museum/
p1285
aVhttp://www.traveltex.com/activities/martin-county-historical-museum/
p1286
aVhttp://www.traveltex.com/activities/martin-creek-lake-state-park/
p1287
aVhttp://www.traveltex.com/activities/martin-dies-jr-state-park-(1)/
p1288
aVhttp://www.traveltex.com/activities/martin-museum-of-art/
p1289
aVhttp://www.traveltex.com/activities/martin-valley-ranch-golf-course/
p1290
aVhttp://www.traveltex.com/activities/mary-kay-museum/
p1291
aVhttp://www.traveltex.com/activities/mason-county-m-beven-eckert-memorial-library/
p1292
aVhttp://www.traveltex.com/activities/mason-county-museum/
p1293
aVhttp://www.traveltex.com/activities/mason-county-veterans-memorial/
p1294
aVhttp://www.traveltex.com/activities/masonic-cemetery/
p1295
aVhttp://www.traveltex.com/activities/masonic-oak/
p1296
aVhttp://www.traveltex.com/activities/master-gardens-nature-trail/
p1297
aVhttp://www.traveltex.com/activities/matador-wildlife-management-area/
p1298
aVhttp://www.traveltex.com/activities/matagorda-beach/
p1299
aVhttp://www.traveltex.com/activities/matagorda-county-birding-nature-center/
p1300
aVhttp://www.traveltex.com/activities/matagorda-island-wildlife-management-area/
p1301
aVhttp://www.traveltex.com/activities/matagorda-museum-childrens-museum/
p1302
aVhttp://www.traveltex.com/activities/mathews-prairie-preserve/
p1303
aVhttp://www.traveltex.com/activities/max-a-mandel-municipal-golf-course/
p1304
aVhttp://www.traveltex.com/activities/max-starcke-park-golf-club/
p1305
aVhttp://www.traveltex.com/activities/maxwell-golf-course/
p1306
aVhttp://www.traveltex.com/activities/mayborn-museum-complex/
p1307
aVhttp://www.traveltex.com/activities/mca2-creative-incubator/
p1308
aVhttp://www.traveltex.com/activities/mcallen-country-club/
p1309
aVhttp://www.traveltex.com/activities/mccamey-country-club/
p1310
aVhttp://www.traveltex.com/activities/mcclesky-no-1/
p1311
aVhttp://www.traveltex.com/activities/mcfaddinward-house/
p1312
aVhttp://www.traveltex.com/activities/mcfarlane-house/
p1313
aVhttp://www.traveltex.com/activities/mcginley-memorial-library/
p1314
aVhttp://www.traveltex.com/activities/mckelligon-canyon/
p1315
aVhttp://www.traveltex.com/activities/mckenna-childrens-museum/
p1316
aVhttp://www.traveltex.com/activities/mckinney-avenue-trolley/
p1317
aVhttp://www.traveltex.com/activities/mckinney-falls-state-park/
p1318
aVhttp://www.traveltex.com/activities/mcl-grand/
p1319
aVhttp://www.traveltex.com/activities/mclean-golf-course/
p1320
aVhttp://www.traveltex.com/activities/mcnay-art-museum/
p1321
aVhttp://www.traveltex.com/activities/meadow-creek-in-the-valley/
p1322
aVhttp://www.traveltex.com/activities/meadowbrook-country-club/
p1323
aVhttp://www.traveltex.com/activities/meadowbrook-farms-golf-club/
p1324
aVhttp://www.traveltex.com/activities/meadowbrook-golf-course/
p1325
aVhttp://www.traveltex.com/activities/meadowbrook-golf-course-(1)/
p1326
aVhttp://www.traveltex.com/activities/meadowbrook-golf-course-canyon-course/
p1327
aVhttp://www.traveltex.com/activities/meadowbrook-golf-course-creek-course/
p1328
aVhttp://www.traveltex.com/activities/meadows-museum/
p1329
aVhttp://www.traveltex.com/activities/medallion-home/
p1330
aVhttp://www.traveltex.com/activities/medicine-mounds/
p1331
aVhttp://www.traveltex.com/activities/medina-county-museum/
p1332
aVhttp://www.traveltex.com/activities/melrose-park-golf-course/
p1333
aVhttp://www.traveltex.com/activities/memorial-park/
p1334
aVhttp://www.traveltex.com/activities/memorial-park-golf-course/
p1335
aVhttp://www.traveltex.com/activities/memphis-country-club/
p1336
aVhttp://www.traveltex.com/activities/menard-county-museum/
p1337
aVhttp://www.traveltex.com/activities/menard-home/
p1338
aVhttp://www.traveltex.com/activities/mendoza-trail-museum/
p1339
aVhttp://www.traveltex.com/activities/mercer-arboretum-and-botanical-gardens/
p1340
aVhttp://www.traveltex.com/activities/meridian-state-park-(1)/
p1341
aVhttp://www.traveltex.com/activities/mesquite-arts-center/
p1342
aVhttp://www.traveltex.com/activities/mesquite-grove-golf-course-at-dyess-air-force-base/
p1343
aVhttp://www.traveltex.com/activities/mesquite-prorodeo/
p1344
aVhttp://www.traveltex.com/activities/mexia-public-schools-museum/
p1345
aVhttp://www.traveltex.com/activities/mexicarte-museum/
p1346
aVhttp://www.traveltex.com/activities/mexican-cultural-institute/
p1347
aVhttp://www.traveltex.com/activities/meyer-bed-and-breakfast-on-cypress-creek/
p1348
aVhttp://www.traveltex.com/activities/meyer-observatory/
p1349
aVhttp://www.traveltex.com/activities/michelson-art-museum/
p1350
aVhttp://www.traveltex.com/activities/mid-valley-golf-club/
p1351
aVhttp://www.traveltex.com/activities/midland-country-club/
p1352
aVhttp://www.traveltex.com/activities/midland-county-historical-museum/
p1353
aVhttp://www.traveltex.com/activities/midland-rail-car/
p1354
aVhttp://www.traveltex.com/activities/milam-county-historical-museum/
p1355
aVhttp://www.traveltex.com/activities/milam-county-jail-museum/
p1356
aVhttp://www.traveltex.com/activities/miles-heritage-museum/
p1357
aVhttp://www.traveltex.com/activities/military-bases/
p1358
aVhttp://www.traveltex.com/activities/mill-creek-golf-club/
p1359
aVhttp://www.traveltex.com/activities/millards-crossing-historic-village/
p1360
aVhttp://www.traveltex.com/activities/miller-springs-natural-area/
p1361
aVhttp://www.traveltex.com/activities/million-barrel-museum/
p1362
aVhttp://www.traveltex.com/activities/mills-county-museum/
p1363
aVhttp://www.traveltex.com/activities/mills-county-old-jail-museum/
p1364
aVhttp://www.traveltex.com/activities/mineola-country-club/
p1365
aVhttp://www.traveltex.com/activities/mineola-historic-museum/
p1366
aVhttp://www.traveltex.com/activities/mineola-nature-preserve/
p1367
aVhttp://www.traveltex.com/activities/mineral-wells-fossil-park/
p1368
aVhttp://www.traveltex.com/activities/minute-maid-park/
p1369
aVhttp://www.traveltex.com/activities/mira-vista-country-club-/
p1370
aVhttp://www.traveltex.com/activities/miss-hatties-museum/
p1371
aVhttp://www.traveltex.com/activities/mission-del-lago-municipal-golf-course/
p1372
aVhttp://www.traveltex.com/activities/mission-historical-museum/
p1373
aVhttp://www.traveltex.com/activities/mission-nuestra-senora-de-la-pursima-concepcin/
p1374
aVhttp://www.traveltex.com/activities/mission-san-francisco-de-la-espada/
p1375
aVhttp://www.traveltex.com/activities/mission-san-jos-y-san-miguel-de-aguayo/
p1376
aVhttp://www.traveltex.com/activities/mission-san-juan-capistrano/
p1377
aVhttp://www.traveltex.com/activities/mission-tejas-state-park-(1)/
p1378
aVhttp://www.traveltex.com/activities/mission-trail/
p1379
aVhttp://www.traveltex.com/activities/modern-art-museum-of-fort-worth/
p1380
aVhttp://www.traveltex.com/activities/monahans-sandhills-state-park/
p1381
aVhttp://www.traveltex.com/activities/monroecrook-house/
p1382
aVhttp://www.traveltex.com/activities/mont-belvieubarbers-hill-museum/
p1383
aVhttp://www.traveltex.com/activities/montgomery-county-preserve/
p1384
aVhttp://www.traveltex.com/activities/moody-gardens/
p1385
aVhttp://www.traveltex.com/activities/moody-gardens-golf-course/
p1386
aVhttp://www.traveltex.com/activities/moody-mansion-and-museum/
p1387
aVhttp://www.traveltex.com/activities/moody-museum/
p1388
aVhttp://www.traveltex.com/activities/moonlight-towers/
p1389
aVhttp://www.traveltex.com/activities/moore-home/
p1390
aVhttp://www.traveltex.com/activities/moran-historical-museum/
p1391
aVhttp://www.traveltex.com/activities/morris-williams-golf-course/
p1392
aVhttp://www.traveltex.com/activities/morton-country-club/
p1393
aVhttp://www.traveltex.com/activities/morton-h-meyerson-symphony-center/
p1394
aVhttp://www.traveltex.com/activities/morton-museum-of-cooke-county/
p1395
aVhttp://www.traveltex.com/activities/mother-neff-state-park/
p1396
aVhttp://www.traveltex.com/activities/motley-county-historical-museum/
p1397
aVhttp://www.traveltex.com/activities/mount-bonnell/
p1398
aVhttp://www.traveltex.com/activities/mount-pleasant-country-club/
p1399
aVhttp://www.traveltex.com/activities/mount-pleasant-historical-museum/
p1400
aVhttp://www.traveltex.com/activities/mount-vernon-music/
p1401
aVhttp://www.traveltex.com/activities/mount-vernon-railroad-depot/
p1402
aVhttp://www.traveltex.com/activities/mountain-view-golf-course/
p1403
aVhttp://www.traveltex.com/activities/msc-forsyth-center-galleries/
p1404
aVhttp://www.traveltex.com/activities/msr-houston/
p1405
aVhttp://www.traveltex.com/activities/mt-blanco-fossil-museum/
p1406
aVhttp://www.traveltex.com/activities/mt-gentilzcemetery/
p1407
aVhttp://www.traveltex.com/activities/mt-hope-cemetery/
p1408
aVhttp://www.traveltex.com/activities/mt-zion-cemetery-and-historical-chapel/
p1409
aVhttp://www.traveltex.com/activities/mud-creek-offroad-park/
p1410
aVhttp://www.traveltex.com/activities/muenster-museum/
p1411
aVhttp://www.traveltex.com/activities/muleshoe-country-club/
p1412
aVhttp://www.traveltex.com/activities/muleshoe-heritage-center/
p1413
aVhttp://www.traveltex.com/activities/muleshoe-national-wildlife-refuge-(1)/
p1414
aVhttp://www.traveltex.com/activities/mulligans-par-3-golf-course/
p1415
aVhttp://www.traveltex.com/activities/municipal-rose-garden-museum/
p1416
aVhttp://www.traveltex.com/activities/mural-near-farmersville/
p1417
aVhttp://www.traveltex.com/activities/mural-near-giddings/
p1418
aVhttp://www.traveltex.com/activities/murals-near-harlingen/
p1419
aVhttp://www.traveltex.com/activities/museum-district/
p1420
aVhttp://www.traveltex.com/activities/museum-for-east-texas-culture/
p1421
aVhttp://www.traveltex.com/activities/museum-of-american-architecture-decorative-arts/
p1422
aVhttp://www.traveltex.com/activities/museum-of-east-texas/
p1423
aVhttp://www.traveltex.com/activities/museum-of-fine-arts-houston/
p1424
aVhttp://www.traveltex.com/activities/museum-of-north-texas-history/
p1425
aVhttp://www.traveltex.com/activities/museum-of-printing-history/
p1426
aVhttp://www.traveltex.com/activities/museum-of-south-texas-history/
p1427
aVhttp://www.traveltex.com/activities/museum-of-southern-history/
p1428
aVhttp://www.traveltex.com/activities/museum-of-texas-handmade-furniture/
p1429
aVhttp://www.traveltex.com/activities/museum-of-texas-tech-university/
p1430
aVhttp://www.traveltex.com/activities/museum-of-the-american-railroad/
p1431
aVhttp://www.traveltex.com/activities/museum-of-the-americas/
p1432
aVhttp://www.traveltex.com/activities/museum-of-the-coastal-bend/
p1433
aVhttp://www.traveltex.com/activities/museum-of-the-desert-southwest/
p1434
aVhttp://www.traveltex.com/activities/museum-of-the-gulf-coast/
p1435
aVhttp://www.traveltex.com/activities/museum-of-the-llano-estacado/
p1436
aVhttp://www.traveltex.com/activities/museum-of-the-noncommissioned-officer/
p1437
aVhttp://www.traveltex.com/activities/museum-of-the-plains/
p1438
aVhttp://www.traveltex.com/activities/museum-of-the-southwest-complex/
p1439
aVhttp://www.traveltex.com/activities/music-box-gallery/
p1440
aVhttp://www.traveltex.com/activities/music-hall-at-fair-park/
p1441
aVhttp://www.traveltex.com/activities/mustang-creek-golf-course/
p1442
aVhttp://www.traveltex.com/activities/mustang-island-state-park-1/
p1443
aVhttp://www.traveltex.com/activities/mustangs-of-las-colinas-museum-exhibit/
p1444
aVhttp://www.traveltex.com/activities/nh-davis-museum-complex-museum/
p1445
aVhttp://www.traveltex.com/activities/nacogdoches-county-master-garden-demonstration-garden/
p1446
aVhttp://www.traveltex.com/activities/narciso-martinez-cultural-arts-center/
p1447
aVhttp://www.traveltex.com/activities/nasaspace-center-houston-1/
p1448
aVhttp://www.traveltex.com/activities/nasher-sculpture-center/
p1449
aVhttp://www.traveltex.com/activities/national-border-patrol-museum-memorial-library/
p1450
aVhttp://www.traveltex.com/activities/national-center-for-childrens-illustrated-literature/
p1451
aVhttp://www.traveltex.com/activities/national-cowgirl-museum-and-hall-of-fame/
p1452
aVhttp://www.traveltex.com/activities/national-mule-memorial/
p1453
aVhttp://www.traveltex.com/activities/national-museum-of-funeral-history/
p1454
aVhttp://www.traveltex.com/activities/national-museum-of-the-pacific-war/
p1455
aVhttp://www.traveltex.com/activities/national-ranching-heritage-center/
p1456
aVhttp://www.traveltex.com/activities/national-scouting-museum/
p1457
aVhttp://www.traveltex.com/activities/national-vietnam-war-museum/
p1458
aVhttp://www.traveltex.com/activities/national-wasp-wwii-museum/
p1459
aVhttp://www.traveltex.com/activities/national-wildlife-refuges/
p1460
aVhttp://www.traveltex.com/activities/natural-bridge-caverns-1/
p1461
aVhttp://www.traveltex.com/activities/natural-bridge-wildlife-ranch/
p1462
aVhttp://www.traveltex.com/activities/navasota-blues-alley-museum-and-shops/
p1463
aVhttp://www.traveltex.com/activities/neches-river-adventures/
p1464
aVhttp://www.traveltex.com/activities/ned-and-fay-dudney-clear-creek-nature-center/
p1465
aVhttp://www.traveltex.com/activities/neillcochran-house/
p1466
aVhttp://www.traveltex.com/activities/nelson-w-wolff-municipal-baseball-stadium/
p1467
aVhttp://www.traveltex.com/activities/newbury-park-hummingbird-garden/
p1468
aVhttp://www.traveltex.com/activities/newport-dunes-golf-club/
p1469
aVhttp://www.traveltex.com/activities/newton-county-history-centermuseumgenealogical-library/
p1470
aVhttp://www.traveltex.com/activities/nightengale-archaeological-center/
p1471
aVhttp://www.traveltex.com/activities/no-1-british-flying-training-school-museum/
p1472
aVhttp://www.traveltex.com/activities/nofsinger-home/
p1473
aVhttp://www.traveltex.com/activities/nolan-ryan-exhibit-center/
p1474
aVhttp://www.traveltex.com/activities/norse-settlement/
p1475
aVhttp://www.traveltex.com/activities/north-texas-golf-course/
p1476
aVhttp://www.traveltex.com/activities/northeast-tarrant-county-civil-war-memorial/
p1477
aVhttp://www.traveltex.com/activities/northeast-texas-bluebird-trail/
p1478
aVhttp://www.traveltex.com/activities/northeast-texas-childrens-museum/
p1479
aVhttp://www.traveltex.com/activities/northeast-texas-rural-heritage-center-museum/
p1480
aVhttp://www.traveltex.com/activities/northern-challenge-golf-club/
p1481
aVhttp://www.traveltex.com/activities/northern-hills-golf-club/
p1482
aVhttp://www.traveltex.com/activities/northgate-country-club-bridges-course/
p1483
aVhttp://www.traveltex.com/activities/northgate-country-club-bunkers-course/
p1484
aVhttp://www.traveltex.com/activities/northgate-country-club-creek-course/
p1485
aVhttp://www.traveltex.com/activities/northridge-country-club/
p1486
aVhttp://www.traveltex.com/activities/northshore-country-club/
p1487
aVhttp://www.traveltex.com/activities/northwood-club/
p1488
aVhttp://www.traveltex.com/activities/nrh20/
p1489
aVhttp://www.traveltex.com/activities/nueces-canyon-equestrian-center-and-resort/
p1490
aVhttp://www.traveltex.com/activities/nueva-vista-golf-club/
p1491
aVhttp://www.traveltex.com/activities/nutcracker-golf-club/
p1492
aVhttp://www.traveltex.com/activities/nytex-sports-centre/
p1493
aVhttp://www.traveltex.com/activities/o-henry-museum/
p1494
aVhttp://www.traveltex.com/activities/oc-fisher-museum/
p1495
aVhttp://www.traveltex.com/activities/oak-creek-country-club/
p1496
aVhttp://www.traveltex.com/activities/oak-grove-cemetery/
p1497
aVhttp://www.traveltex.com/activities/oak-grove-country-club/
p1498
aVhttp://www.traveltex.com/activities/oak-grove-golf-course/
p1499
aVhttp://www.traveltex.com/activities/oak-hills-country-club/
p1500
aVhttp://www.traveltex.com/activities/oak-hollow-golf-course/
p1501
aVhttp://www.traveltex.com/activities/oak-lawn-country-club/
p1502
aVhttp://www.traveltex.com/activities/oakhickory-historic-district/
p1503
aVhttp://www.traveltex.com/activities/oaklawn-opry/
p1504
aVhttp://www.traveltex.com/activities/oakmont-country-club/
p1505
aVhttp://www.traveltex.com/activities/oakridge-country-club/
p1506
aVhttp://www.traveltex.com/activities/oakwood-cemetery/
p1507
aVhttp://www.traveltex.com/activities/oakwood-cemetery-(1)/
p1508
aVhttp://www.traveltex.com/activities/ocean-star-offshore-drilling-rig-and-museum/
p1509
aVhttp://www.traveltex.com/activities/odessa-country-club-links-course/
p1510
aVhttp://www.traveltex.com/activities/odessa-country-club-old-course/
p1511
aVhttp://www.traveltex.com/activities/odessa-jackalopes-hockey/
p1512
aVhttp://www.traveltex.com/activities/the-odessa-meteor-crater-and-museum/
p1513
aVhttp://www.traveltex.com/activities/oil-ranch/
p1514
aVhttp://www.traveltex.com/activities/old-american-golf-club/
p1515
aVhttp://www.traveltex.com/activities/old-baylor-parkruins-of-old-baylor-university/
p1516
aVhttp://www.traveltex.com/activities/old-bedford-school/
p1517
aVhttp://www.traveltex.com/activities/old-cora/
p1518
aVhttp://www.traveltex.com/activities/old-fort-cemetery/
p1519
aVhttp://www.traveltex.com/activities/old-fort-parker/
p1520
aVhttp://www.traveltex.com/activities/old-frio-county-jail-museum/
p1521
aVhttp://www.traveltex.com/activities/old-independence-cemetery/
p1522
aVhttp://www.traveltex.com/activities/old-ingram/
p1523
aVhttp://www.traveltex.com/activities/old-jail-museum/
p1524
aVhttp://www.traveltex.com/activities/old-jail-museum-(1)/
p1525
aVhttp://www.traveltex.com/activities/old-jail-museum-(2)/
p1526
aVhttp://www.traveltex.com/activities/old-nacogdoches-university-building/
p1527
aVhttp://www.traveltex.com/activities/old-opera-house/
p1528
aVhttp://www.traveltex.com/activities/old-post-office-museum-and-art-center/
p1529
aVhttp://www.traveltex.com/activities/old-red-courthouse/
p1530
aVhttp://www.traveltex.com/activities/old-sonora-ice-house-ranch-museum/
p1531
aVhttp://www.traveltex.com/activities/old-spanish-trail/
p1532
aVhttp://www.traveltex.com/activities/old-springfield/
p1533
aVhttp://www.traveltex.com/activities/old-stone-fort/
p1534
aVhttp://www.traveltex.com/activities/old-tascosa/
p1535
aVhttp://www.traveltex.com/activities/old-town/
p1536
aVhttp://www.traveltex.com/activities/old-town-spring/
p1537
aVhttp://www.traveltex.com/activities/old-tunnel-state-park/
p1538
aVhttp://www.traveltex.com/activities/oldham-county-country-club/
p1539
aVhttp://www.traveltex.com/activities/oldham-county-heritage-farm-ranch-museum/
p1540
aVhttp://www.traveltex.com/activities/oliver-lovings-grave/
p1541
aVhttp://www.traveltex.com/activities/olmos-basin-municipal-golf-course/
p1542
aVhttp://www.traveltex.com/activities/opera-house/
p1543
aVhttp://www.traveltex.com/activities/orange-grove-area-museum/
p1544
aVhttp://www.traveltex.com/activities/orange-show/
p1545
aVhttp://www.traveltex.com/activities/orrin-winters-cabin/
p1546
aVhttp://www.traveltex.com/activities/os-museum/
p1547
aVhttp://www.traveltex.com/activities/oso-beach-municipal-golf-course/
p1548
aVhttp://www.traveltex.com/activities/otto-lawrence-childrens-museum/
p1549
aVhttp://www.traveltex.com/activities/our-lady-of-lourdes-grotto/
p1550
aVhttp://www.traveltex.com/activities/outdoor-art-exhibit/
p1551
aVhttp://www.traveltex.com/activities/overland-trail-museum/
p1552
aVhttp://www.traveltex.com/activities/owens-spring-creek-farm/
p1553
aVhttp://www.traveltex.com/activities/ozark-trail-marker/
p1554
aVhttp://www.traveltex.com/activities/ozona-country-club/
p1555
aVhttp://www.traveltex.com/activities/par-country-club/
p1556
aVhttp://www.traveltex.com/activities/pace-park-salado-creek/
p1557
aVhttp://www.traveltex.com/activities/padre-island-national-seashore/
p1558
aVhttp://www.traveltex.com/activities/padre-isles-country-club/
p1559
aVhttp://www.traveltex.com/activities/painted-churches-tour/
p1560
aVhttp://www.traveltex.com/activities/painted-dunes-desert-golf-course-east-course/
p1561
aVhttp://www.traveltex.com/activities/painted-dunes-desert-golf-course-north-course/
p1562
aVhttp://www.traveltex.com/activities/painted-dunes-desert-golf-course-west-course/
p1563
aVhttp://www.traveltex.com/activities/paisano-pete/
p1564
aVhttp://www.traveltex.com/activities/palacios-golf-club/
p1565
aVhttp://www.traveltex.com/activities/palm-house-museum/
p1566
aVhttp://www.traveltex.com/activities/palm-view-golf-course/
p1567
aVhttp://www.traveltex.com/activities/palmetto-state-park/
p1568
aVhttp://www.traveltex.com/activities/palmito-ranch-battlefield/
p1569
aVhttp://www.traveltex.com/activities/palo-alto-battlefield-national-historic-site/
p1570
aVhttp://www.traveltex.com/activities/palo-duro-canyon-state-park/
p1571
aVhttp://www.traveltex.com/activities/palo-duro-creek-golf-club/
p1572
aVhttp://www.traveltex.com/activities/pa-country-club/
p1573
aVhttp://www.traveltex.com/activities/panhandle-country-club/
p1574
aVhttp://www.traveltex.com/activities/panhandleplains-historical-museum/
p1575
aVhttp://www.traveltex.com/activities/panola-county-heritage-museum/
p1576
aVhttp://www.traveltex.com/activities/panola-county-historical-jail-museum/
p1577
aVhttp://www.traveltex.com/activities/papes-nutcracker-museum/
p1578
aVhttp://www.traveltex.com/activities/paramount-theatre/
p1579
aVhttp://www.traveltex.com/activities/paris-golf-and-country-club/
p1580
aVhttp://www.traveltex.com/activities/parker-county-courthouse/
p1581
aVhttp://www.traveltex.com/activities/parker-house-ranching-museum/
p1582
aVhttp://www.traveltex.com/activities/parks/
p1583
aVhttp://www.traveltex.com/activities/parks-(1)/
p1584
aVhttp://www.traveltex.com/activities/pasadena-municipal-golf-course/
p1585
aVhttp://www.traveltex.com/activities/patrick-cabin/
p1586
aVhttp://www.traveltex.com/activities/patterson-memorial-delta-county-museum/
p1587
aVhttp://www.traveltex.com/activities/pearce-collection-museum/
p1588
aVhttp://www.traveltex.com/activities/pecan-grove-cemetery/
p1589
aVhttp://www.traveltex.com/activities/pecan-grove-plantation-country-club-grove-course/
p1590
aVhttp://www.traveltex.com/activities/pecan-grove-plantation-country-club-pecan-course/
p1591
aVhttp://www.traveltex.com/activities/pecan-grove-plantation-country-club-plantation-course/
p1592
aVhttp://www.traveltex.com/activities/pecan-hollow-golf-course/
p1593
aVhttp://www.traveltex.com/activities/pecan-lakes-golf-club/
p1594
aVhttp://www.traveltex.com/activities/pecan-plantation-country-club/
p1595
aVhttp://www.traveltex.com/activities/pecan-trails-golf-course/
p1596
aVhttp://www.traveltex.com/activities/pecan-valley-golf-club/
p1597
aVhttp://www.traveltex.com/activities/pecan-valley-golf-course-hills-course/
p1598
aVhttp://www.traveltex.com/activities/pecan-valley-golf-course-river-course/
p1599
aVhttp://www.traveltex.com/activities/pedernales-falls-state-park/
p1600
aVhttp://www.traveltex.com/activities/pelican-island/
p1601
aVhttp://www.traveltex.com/activities/penn-farm-agricultural-history-center/
p1602
aVhttp://www.traveltex.com/activities/permian-basin-vietnam-veterans-memorial/
p1603
aVhttp://www.traveltex.com/activities/perot-museum-of-nature-and-science/
p1604
aVhttp://www.traveltex.com/activities/perot-theatre/
p1605
aVhttp://www.traveltex.com/activities/perrin-air-force-base-historical-museum/
p1606
aVhttp://www.traveltex.com/activities/perry-country-club/
p1607
aVhttp://www.traveltex.com/activities/perryton-golf-club/
p1608
aVhttp://www.traveltex.com/activities/peter-pan-statue/
p1609
aVhttp://www.traveltex.com/activities/pheasant-trails-golf-course/
p1610
aVhttp://www.traveltex.com/activities/phillips-municipal-golf-course/
p1611
aVhttp://www.traveltex.com/activities/pilgrim-church/
p1612
aVhttp://www.traveltex.com/activities/pine-crest-golf-club/
p1613
aVhttp://www.traveltex.com/activities/pine-forest-country-club-gold-course/
p1614
aVhttp://www.traveltex.com/activities/pine-forest-country-club-green-course/
p1615
aVhttp://www.traveltex.com/activities/pine-forest-country-club-white-course/
p1616
aVhttp://www.traveltex.com/activities/pine-forest-golf-club/
p1617
aVhttp://www.traveltex.com/activities/pine-ridge-golf-course/
p1618
aVhttp://www.traveltex.com/activities/pine-springs-golf-course/
p1619
aVhttp://www.traveltex.com/activities/pinecrest-country-club/
p1620
aVhttp://www.traveltex.com/activities/piney-woods-country-club/
p1621
aVhttp://www.traveltex.com/activities/pineywoods-native-plant-center/
p1622
aVhttp://www.traveltex.com/activities/pioneer-citycounty-museum/
p1623
aVhttp://www.traveltex.com/activities/pioneer-home/
p1624
aVhttp://www.traveltex.com/activities/pioneer-memorial-library/
p1625
aVhttp://www.traveltex.com/activities/pioneer-museum/
p1626
aVhttp://www.traveltex.com/activities/pioneer-museum-(1)/
p1627
aVhttp://www.traveltex.com/activities/pioneer-plaza/
p1628
aVhttp://www.traveltex.com/activities/pioneer-village/
p1629
aVhttp://www.traveltex.com/activities/pioneer-west-museum/
p1630
aVhttp://www.traveltex.com/activities/plains-fairways-golf-course/
p1631
aVhttp://www.traveltex.com/activities/plainview-country-club/
p1632
aVhttp://www.traveltex.com/activities/plantation-golf-club/
p1633
aVhttp://www.traveltex.com/activities/plaza-gallery/
p1634
aVhttp://www.traveltex.com/activities/plaza-theatre/
p1635
aVhttp://www.traveltex.com/activities/pleasanton-country-club/
p1636
aVhttp://www.traveltex.com/activities/pleasure-island/
p1637
aVhttp://www.traveltex.com/activities/pliska-airplane/
p1638
aVhttp://www.traveltex.com/activities/plum-creek-golf-course/
p1639
aVhttp://www.traveltex.com/activities/polk-county-museum/
p1640
aVhttp://www.traveltex.com/activities/pompeiian-villa/
p1641
aVhttp://www.traveltex.com/activities/popeye-statue/
p1642
aVhttp://www.traveltex.com/activities/port-aransas-museum/
p1643
aVhttp://www.traveltex.com/activities/port-aransas-nature-preserve/
p1644
aVhttp://www.traveltex.com/activities/port-isabel-lighthouse-keepers-cottage/
p1645
aVhttp://www.traveltex.com/activities/port-isabel-lighthouse-state-historic-site/
p1646
aVhttp://www.traveltex.com/activities/port-of-galveston/
p1647
aVhttp://www.traveltex.com/activities/portrait-of-a-warrior-memorial-art-gallery/
p1648
aVhttp://www.traveltex.com/activities/possum-kingdom-state-park-(1)/
p1649
aVhttp://www.traveltex.com/activities/post-oak-preserve/
p1650
aVhttp://www.traveltex.com/activities/post-office-mural/
p1651
aVhttp://www.traveltex.com/activities/potton-house/
p1652
aVhttp://www.traveltex.com/activities/prairie-edge-museum/
p1653
aVhttp://www.traveltex.com/activities/prairie-lakes-golf-course-blue-course/
p1654
aVhttp://www.traveltex.com/activities/prairie-lakes-golf-course-red-course/
p1655
aVhttp://www.traveltex.com/activities/prairie-lakes-golf-course-white-course/
p1656
aVhttp://www.traveltex.com/activities/presbyterian-building/
p1657
aVhttp://www.traveltex.com/activities/presidio-county-courthouse/
p1658
aVhttp://www.traveltex.com/activities/presidio-la-bahia/
p1659
aVhttp://www.traveltex.com/activities/preston-trail-golf-club/
p1660
aVhttp://www.traveltex.com/activities/preston-west-par-3-golf-course/
p1661
aVhttp://www.traveltex.com/activities/prestonwood-country-club-creek-course/
p1662
aVhttp://www.traveltex.com/activities/prestonwood-country-club-hills-course/
p1663
aVhttp://www.traveltex.com/activities/princedale-country-club/
p1664
aVhttp://www.traveltex.com/activities/pump-jack-tour/
p1665
aVhttp://www.traveltex.com/activities/purtis-creek-state-park/
p1666
aVhttp://www.traveltex.com/activities/pyote-museum-and-rattlesnake-bomber-base/
p1667
aVhttp://www.traveltex.com/activities/quail-creek-golf-club/
p1668
aVhttp://www.traveltex.com/activities/quanah-country-club/
p1669
aVhttp://www.traveltex.com/activities/quanah-acme-and-pacific-railroad-depot/
p1670
aVhttp://www.traveltex.com/activities/queen-of-peace-shrine/
p1671
aVhttp://www.traveltex.com/activities/quicksand-at-woodcreek-country-club/
p1672
aVhttp://www.traveltex.com/activities/quicksand-golf-course/
p1673
aVhttp://www.traveltex.com/activities/quinta-mazatlan/
p1674
aVhttp://www.traveltex.com/activities/quintana-beach-county-park/
p1675
aVhttp://www.traveltex.com/activities/ra-terrell-homeplace/
p1676
aVhttp://www.traveltex.com/activities/rg-le-tourneau-museum/
p1677
aVhttp://www.traveltex.com/activities/railroad-and-cultural-heritage-museum/
p1678
aVhttp://www.traveltex.com/activities/railroad-and-heritage-museum/
p1679
aVhttp://www.traveltex.com/activities/railroad-depot/
p1680
aVhttp://www.traveltex.com/activities/railroad-depot-hudspeth-county-museum/
p1681
aVhttp://www.traveltex.com/activities/railroad-museum/
p1682
aVhttp://www.traveltex.com/activities/railroad-museum-(1)/
p1683
aVhttp://www.traveltex.com/activities/ralls-historical-museum/
p1684
aVhttp://www.traveltex.com/activities/ranch-tours/
p1685
aVhttp://www.traveltex.com/activities/ranchland-hills-country-club/
p1686
aVhttp://www.traveltex.com/activities/rancho-de-las-cabras/
p1687
aVhttp://www.traveltex.com/activities/rangerette-showcase/
p1688
aVhttp://www.traveltex.com/activities/rangers-ballpark-in-arlington/
p1689
aVhttp://www.traveltex.com/activities/rankin-museum/
p1690
aVhttp://www.traveltex.com/activities/ransom-road-navigation-district-park/
p1691
aVhttp://www.traveltex.com/activities/ratliff-ranch-golf-links/
p1692
aVhttp://www.traveltex.com/activities/raven-nest-golf-club/
p1693
aVhttp://www.traveltex.com/activities/ray-roberts-lake-state-park/
p1694
aVhttp://www.traveltex.com/activities/the-raye-theater/
p1695
aVhttp://www.traveltex.com/activities/real-county-historical-museum/
p1696
aVhttp://www.traveltex.com/activities/red-river-county-courthouse/
p1697
aVhttp://www.traveltex.com/activities/red-river-county-hall-of-fame/
p1698
aVhttp://www.traveltex.com/activities/red-river-railroad-museum/
p1699
aVhttp://www.traveltex.com/activities/red-river-valley-museum/
p1700
aVhttp://www.traveltex.com/activities/red-rock-ranch-tours/
p1701
aVhttp://www.traveltex.com/activities/redstone-golf-club-member-course/
p1702
aVhttp://www.traveltex.com/activities/redstone-golf-club-tournament-course/
p1703
aVhttp://www.traveltex.com/activities/reese-golf-center/
p1704
aVhttp://www.traveltex.com/activities/reeves-county-golf-course/
p1705
aVhttp://www.traveltex.com/activities/reeves-memorial/
p1706
aVhttp://www.traveltex.com/activities/refugio-county-museum/
p1707
aVhttp://www.traveltex.com/activities/regional-arts-center/
p1708
aVhttp://www.traveltex.com/activities/reliant-park/
p1709
aVhttp://www.traveltex.com/activities/replica-of-worlds-tallest-windmill/
p1710
aVhttp://www.traveltex.com/activities/republic-of-the-rio-grande-museum/
p1711
aVhttp://www.traveltex.com/activities/resaca-de-la-palma-state-park/
p1712
aVhttp://www.traveltex.com/activities/retama-park/
p1713
aVhttp://www.traveltex.com/activities/reunion-tower/
p1714
aVhttp://www.traveltex.com/activities/rgv-whitewings-baseball/
p1715
aVhttp://www.traveltex.com/activities/ridgeview-ranch-golf-club/
p1716
aVhttp://www.traveltex.com/activities/ridgewood-country-club/
p1717
aVhttp://www.traveltex.com/activities/ridglea-country-club-north-course/
p1718
aVhttp://www.traveltex.com/activities/rio-colorado-golf-course/
p1719
aVhttp://www.traveltex.com/activities/ripleys-believe-it-or-not-louis-tussauds-wax-works-(1)/
p1720
aVhttp://www.traveltex.com/activities/ripleys-believe-it-or-not-louis-tussauds-palace-of-wax-and-ripleys-enchanted-mirror-maze/
p1721
aVhttp://www.traveltex.com/activities/rita-blanca-national-grasslands/
p1722
aVhttp://www.traveltex.com/activities/river-bend-nature-center/
p1723
aVhttp://www.traveltex.com/activities/river-bend-resort/
p1724
aVhttp://www.traveltex.com/activities/river-cs/
p1725
aVhttp://www.traveltex.com/activities/river-creek-park-golf-course/
p1726
aVhttp://www.traveltex.com/activities/river-crest-country-club/
p1727
aVhttp://www.traveltex.com/activities/river-guides-outfitters/
p1728
aVhttp://www.traveltex.com/activities/river-hills-country-club/
p1729
aVhttp://www.traveltex.com/activities/river-legacy-park/
p1730
aVhttp://www.traveltex.com/activities/river-oaks-country-club/
p1731
aVhttp://www.traveltex.com/activities/river-place-country-club/
p1732
aVhttp://www.traveltex.com/activities/river-plantation-country-club-augusta-course/
p1733
aVhttp://www.traveltex.com/activities/river-plantation-country-club-biloxi-course/
p1734
aVhttp://www.traveltex.com/activities/river-ridge-golf-club-parkland-course/
p1735
aVhttp://www.traveltex.com/activities/river-run-atv-park/
p1736
aVhttp://www.traveltex.com/activities/river-tube-rentals/
p1737
aVhttp://www.traveltex.com/activities/river-valley-pioneer-museum/
p1738
aVhttp://www.traveltex.com/activities/river-walk/
p1739
aVhttp://www.traveltex.com/activities/riverbend-park/
p1740
aVhttp://www.traveltex.com/activities/riverhill-country-club/
p1741
aVhttp://www.traveltex.com/activities/riverside-golf-club/
p1742
aVhttp://www.traveltex.com/activities/riverside-golf-club-(1)/
p1743
aVhttp://www.traveltex.com/activities/riverside-golf-course/
p1744
aVhttp://www.traveltex.com/activities/riverside-golf-course-(1)/
p1745
aVhttp://www.traveltex.com/activities/riverside-golf-course-blue-course/
p1746
aVhttp://www.traveltex.com/activities/riverside-golf-course-red-course/
p1747
aVhttp://www.traveltex.com/activities/riverside-golf-course-white-course/
p1748
aVhttp://www.traveltex.com/activities/riverside-nature-center/
p1749
aVhttp://www.traveltex.com/activities/roaring-ranger-museum/
p1750
aVhttp://www.traveltex.com/activities/roaring-springs-depot-museum/
p1751
aVhttp://www.traveltex.com/activities/roaring-springs-ranch-golf-course/
p1752
aVhttp://www.traveltex.com/activities/robert-e-richeson-memorial-museum/
p1753
aVhttp://www.traveltex.com/activities/robert-wood-johnson-museum-of-frontier-medicine/
p1754
aVhttp://www.traveltex.com/activities/roberts-county-museum/
p1755
aVhttp://www.traveltex.com/activities/rockdale-country-club/
p1756
aVhttp://www.traveltex.com/activities/rockdale-ign-railroad-depot-museum/
p1757
aVhttp://www.traveltex.com/activities/rockport-center-for-the-arts/
p1758
aVhttp://www.traveltex.com/activities/rockwall-county-historical-museum/
p1759
aVhttp://www.traveltex.com/activities/rockwood-golf-course-rock-course/
p1760
aVhttp://www.traveltex.com/activities/rodeo-city-music-hall/
p1761
aVhttp://www.traveltex.com/activities/rolling-hills-country-club/
p1762
aVhttp://www.traveltex.com/activities/rose-hill/
p1763
aVhttp://www.traveltex.com/activities/rosenberg-library/
p1764
aVhttp://www.traveltex.com/activities/rosenberg-railroad-museum/
p1765
aVhttp://www.traveltex.com/activities/ross-rogers-municipal-golf-course-old-course/
p1766
aVhttp://www.traveltex.com/activities/rothko-chapel/
p1767
aVhttp://www.traveltex.com/activities/rough-creek-lodge/
p1768
aVhttp://www.traveltex.com/activities/round-top-family-library/
p1769
aVhttp://www.traveltex.com/activities/roy-e-larsen-sandyland-sanctuary/
p1770
aVhttp://www.traveltex.com/activities/roy-orbison-museum/
p1771
aVhttp://www.traveltex.com/activities/royal-oaks-country-club/
p1772
aVhttp://www.traveltex.com/activities/royal-oaks-country-club-(1)/
p1773
aVhttp://www.traveltex.com/activities/ruby-m-mize-azalea-garden/
p1774
aVhttp://www.traveltex.com/activities/ruby-n-priddy-butterfly-conservatory/
p1775
aVhttp://www.traveltex.com/activities/ruins-of-real-presidio-de-san-saba/
p1776
aVhttp://www.traveltex.com/activities/rumley-tractor/
p1777
aVhttp://www.traveltex.com/activities/rusty-rail-golf-club/
p1778
aVhttp://www.traveltex.com/activities/rv-museum/
p1779
aVhttp://www.traveltex.com/activities/sabinal-canyon-museum/
p1780
aVhttp://www.traveltex.com/activities/sabine-national-forest/
p1781
aVhttp://www.traveltex.com/activities/sabine-national-forest-(1)/
p1782
aVhttp://www.traveltex.com/activities/sabine-national-forest-(2)/
p1783
aVhttp://www.traveltex.com/activities/sabine-pass/
p1784
aVhttp://www.traveltex.com/activities/sabine-pass-battleground-state-historic-site/
p1785
aVhttp://www.traveltex.com/activities/sacred-heart-catholic-church/
p1786
aVhttp://www.traveltex.com/activities/saint-arnold-brewing-company/
p1787
aVhttp://www.traveltex.com/activities/saints-roost-museum/
p1788
aVhttp://www.traveltex.com/activities/salt-fork-municipal-golf-course/
p1789
aVhttp://www.traveltex.com/activities/sam-bell-maxey-house-state-historic-site/
p1790
aVhttp://www.traveltex.com/activities/sam-houston-boat-tours/
p1791
aVhttp://www.traveltex.com/activities/sam-houston-homesite/
p1792
aVhttp://www.traveltex.com/activities/sam-houston-memorial-museum-complex/
p1793
aVhttp://www.traveltex.com/activities/sam-houston-national-forest/
p1794
aVhttp://www.traveltex.com/activities/sam-houston-national-forest-(2)/
p1795
aVhttp://www.traveltex.com/activities/sam-houston-national-forest-(3)/
p1796
aVhttp://www.traveltex.com/activities/sam-houston-race-track/
p1797
aVhttp://www.traveltex.com/activities/sam-houston-regional-library-research-center/
p1798
aVhttp://www.traveltex.com/activities/sam-houston-sanders-corps-of-cadets-center/
p1799
aVhttp://www.traveltex.com/activities/sam-houston-statue/
p1800
aVhttp://www.traveltex.com/activities/sam-rayburn-house-museum/
p1801
aVhttp://www.traveltex.com/activities/sam-rayburn-library-and-museum/
p1802
aVhttp://www.traveltex.com/activities/sammons-golf-links/
p1803
aVhttp://www.traveltex.com/activities/sammy-baugh-golf-course-at-western-texas-college-/
p1804
aVhttp://www.traveltex.com/activities/samuell-farm/
p1805
aVhttp://www.traveltex.com/activities/san-agustin-cathedral/
p1806
aVhttp://www.traveltex.com/activities/san-angel-folk-art/
p1807
aVhttp://www.traveltex.com/activities/san-angelo-museum-of-fine-arts-and-education-center/
p1808
aVhttp://www.traveltex.com/activities/san-angelo-nature-center/
p1809
aVhttp://www.traveltex.com/activities/san-angelo-state-park/
p1810
aVhttp://www.traveltex.com/activities/san-antonio-botanical-garden/
p1811
aVhttp://www.traveltex.com/activities/san-antonio-childrens-museum/
p1812
aVhttp://www.traveltex.com/activities/san-antonio-country-club/
p1813
aVhttp://www.traveltex.com/activities/san-antonio-missions-national-historical-park/
p1814
aVhttp://www.traveltex.com/activities/san-antonio-museum-of-art/
p1815
aVhttp://www.traveltex.com/activities/san-antonio-zoo/
p1816
aVhttp://www.traveltex.com/activities/san-bernard-national-wildlife-refuge-(1)/
p1817
aVhttp://www.traveltex.com/activities/san-elizario-presidio-chapel/
p1818
aVhttp://www.traveltex.com/activities/san-felipe-country-club/
p1819
aVhttp://www.traveltex.com/activities/san-felipe-de-austin-state-historic-site/
p1820
aVhttp://www.traveltex.com/activities/san-fernando-cathedral/
p1821
aVhttp://www.traveltex.com/activities/san-jacinto-battleground-state-historic-site-2/
p1822
aVhttp://www.traveltex.com/activities/san-jacinto-college-golf-course-/
p1823
aVhttp://www.traveltex.com/activities/san-jacinto-county-museum/
p1824
aVhttp://www.traveltex.com/activities/san-jacinto-plaza/
p1825
aVhttp://www.traveltex.com/activities/san-marcos-river-walkway/
p1826
aVhttp://www.traveltex.com/activities/san-pedro-golf-course/
p1827
aVhttp://www.traveltex.com/activities/san-saba-county-museum/
p1828
aVhttp://www.traveltex.com/activities/san-saba-municipal-golf-course/
p1829
aVhttp://www.traveltex.com/activities/sand-crawl-museum/
p1830
aVhttp://www.traveltex.com/activities/sand-hills/
p1831
aVhttp://www.traveltex.com/activities/santa-ana-national-wildlife-refuge-(1)/
p1832
aVhttp://www.traveltex.com/activities/santa-fe-depot/
p1833
aVhttp://www.traveltex.com/activities/santa-fe-depot-museum/
p1834
aVhttp://www.traveltex.com/activities/santa-fe-municipal-golf-course/
p1835
aVhttp://www.traveltex.com/activities/santa-fe-museum/
p1836
aVhttp://www.traveltex.com/activities/santa-rita-no-1/
p1837
aVhttp://www.traveltex.com/activities/sargent-beach/
p1838
aVhttp://www.traveltex.com/activities/scarborough-renaissance-festival/
p1839
aVhttp://www.traveltex.com/activities/scarlett-ohardys-gone-with-the-wind-museum/
p1840
aVhttp://www.traveltex.com/activities/scenic-drive-near-alto/
p1841
aVhttp://www.traveltex.com/activities/scenic-drive-near-benjamin/
p1842
aVhttp://www.traveltex.com/activities/scenic-drive-near-blanco/
p1843
aVhttp://www.traveltex.com/activities/scenic-drive-near-borger/
p1844
aVhttp://www.traveltex.com/activities/scenic-drive-near-center/
p1845
aVhttp://www.traveltex.com/activities/scenic-drive-near-chappell-hill/
p1846
aVhttp://www.traveltex.com/activities/scenic-drive-near-claude/
p1847
aVhttp://www.traveltex.com/activities/scenic-drive-near-coldspring/
p1848
aVhttp://www.traveltex.com/activities/scenic-drive-near-gail/
p1849
aVhttp://www.traveltex.com/activities/scenic-drive-near-gilmer/
p1850
aVhttp://www.traveltex.com/activities/scenic-drive-near-gonzales/
p1851
aVhttp://www.traveltex.com/activities/scenic-drive-near-huntsville/
p1852
aVhttp://www.traveltex.com/activities/scenic-drive-near-independence/
p1853
aVhttp://www.traveltex.com/activities/scenic-drive-near-iraan/
p1854
aVhttp://www.traveltex.com/activities/scenic-drive-near-lago-vista/
p1855
aVhttp://www.traveltex.com/activities/scenic-drive-near-memphis/
p1856
aVhttp://www.traveltex.com/activities/scenic-drive-near-post/
p1857
aVhttp://www.traveltex.com/activities/scenic-drive-near-rusk/
p1858
aVhttp://www.traveltex.com/activities/scenic-drive-near-saint-jo/
p1859
aVhttp://www.traveltex.com/activities/scenic-drive-near-sealy/
p1860
aVhttp://www.traveltex.com/activities/scenic-drive-near-sierra-blanca/
p1861
aVhttp://www.traveltex.com/activities/scenic-drive-near-stinnett/
p1862
aVhttp://www.traveltex.com/activities/scenic-drive-near-utopia/
p1863
aVhttp://www.traveltex.com/activities/scenic-drive-near-uvalde/
p1864
aVhttp://www.traveltex.com/activities/scenic-drive-near-wimberley/
p1865
aVhttp://www.traveltex.com/activities/scenic-drives-near-bandera/
p1866
aVhttp://www.traveltex.com/activities/scenic-drives-near-brackettville/
p1867
aVhttp://www.traveltex.com/activities/scenic-drives-near-burnet/
p1868
aVhttp://www.traveltex.com/activities/scenic-drives-near-concan/
p1869
aVhttp://www.traveltex.com/activities/scenic-drives-near-el-paso/
p1870
aVhttp://www.traveltex.com/activities/scenic-drives-near-gainesville/
p1871
aVhttp://www.traveltex.com/activities/scenic-drives-near-hemphill/
p1872
aVhttp://www.traveltex.com/activities/scenic-drives-near-junction/
p1873
aVhttp://www.traveltex.com/activities/scenic-drives-near-la-grange/
p1874
aVhttp://www.traveltex.com/activities/scenic-drives-near-leakey/
p1875
aVhttp://www.traveltex.com/activities/scenic-drives-near-marble-falls/
p1876
aVhttp://www.traveltex.com/activities/scenic-drives-near-mineral-wells/
p1877
aVhttp://www.traveltex.com/activities/scenic-drives-near-new-braunfels/
p1878
aVhttp://www.traveltex.com/activities/scenic-drives-near-rocksprings/
p1879
aVhttp://www.traveltex.com/activities/scenic-drives-near-san-marcos/
p1880
aVhttp://www.traveltex.com/activities/scenic-drives-near-silverton/
p1881
aVhttp://www.traveltex.com/activities/scenic-drives-near-vanderpool/
p1882
aVhttp://www.traveltex.com/activities/schlitterbahn/
p1883
aVhttp://www.traveltex.com/activities/schlitterbahn-galveston-island-waterpark/
p1884
aVhttp://www.traveltex.com/activities/schulenburg-historical-museum/
p1885
aVhttp://www.traveltex.com/activities/scitech-discovery-center/
p1886
aVhttp://www.traveltex.com/activities/science-spectrum-and-omni-theater/
p1887
aVhttp://www.traveltex.com/activities/scott-schreiner-golf-course/
p1888
aVhttp://www.traveltex.com/activities/scurry-county-museum/
p1889
aVhttp://www.traveltex.com/activities/sea-center-texas/
p1890
aVhttp://www.traveltex.com/activities/sea-life-grapevine-aquarium/
p1891
aVhttp://www.traveltex.com/activities/sea-rim-state-park/
p1892
aVhttp://www.traveltex.com/activities/sea-turtle-inc/
p1893
aVhttp://www.traveltex.com/activities/seabourne-creek-nature-park/
p1894
aVhttp://www.traveltex.com/activities/seagravesloop-museum-art-center/
p1895
aVhttp://www.traveltex.com/activities/seamans-memorial-at-harbor-park/
p1896
aVhttp://www.traveltex.com/activities/seawolf-park/
p1897
aVhttp://www.traveltex.com/activities/seaworld-san-antonio/
p1898
aVhttp://www.traveltex.com/activities/sebastopol-house-historic-site/
p1899
aVhttp://www.traveltex.com/activities/segcity-tours/
p1900
aVhttp://www.traveltex.com/activities/seguin-heritage-museum/
p1901
aVhttp://www.traveltex.com/activities/selena-museum/
p1902
aVhttp://www.traveltex.com/activities/seminole-canyon-state-park-and-historic-site/
p1903
aVhttp://www.traveltex.com/activities/seminole-indian-scout-cemetery/
p1904
aVhttp://www.traveltex.com/activities/serbin-community/
p1905
aVhttp://www.traveltex.com/activities/shadow-hawk-golf-club/
p1906
aVhttp://www.traveltex.com/activities/shadow-hills-golf-course/
p1907
aVhttp://www.traveltex.com/activities/shadow-lakes-golf-course/
p1908
aVhttp://www.traveltex.com/activities/shady-oaks-country-club-little-nine-course/
p1909
aVhttp://www.traveltex.com/activities/shady-oaks-golf-course/
p1910
aVhttp://www.traveltex.com/activities/shady-valley-golf-club/
p1911
aVhttp://www.traveltex.com/activities/shakespeare-at-winedale/
p1912
aVhttp://www.traveltex.com/activities/shamrock-country-club/
p1913
aVhttp://www.traveltex.com/activities/shangri-la-botanical-gardens-and-nature-center/
p1914
aVhttp://www.traveltex.com/activities/sharpstown-municipal-golf-course/
p1915
aVhttp://www.traveltex.com/activities/shary-municipal-golf-course/
p1916
aVhttp://www.traveltex.com/activities/shelby-county-courthouse/
p1917
aVhttp://www.traveltex.com/activities/shelby-county-museum/
p1918
aVhttp://www.traveltex.com/activities/sheldon-lake-state-park-and-environmental-education-center/
p1919
aVhttp://www.traveltex.com/activities/sheriffs-posse-rodeo/
p1920
aVhttp://www.traveltex.com/activities/sherman-county-depot-museum/
p1921
aVhttp://www.traveltex.com/activities/sherrill-park-golf-course-course-one/
p1922
aVhttp://www.traveltex.com/activities/shiloh-cemetery/
p1923
aVhttp://www.traveltex.com/activities/shivers-library-and-museum/
p1924
aVhttp://www.traveltex.com/activities/shooting-star-museum/
p1925
aVhttp://www.traveltex.com/activities/shrimp-boat-monument/
p1926
aVhttp://www.traveltex.com/activities/shrine-of-our-lady-of-guadalupe/
p1927
aVhttp://www.traveltex.com/activities/siecke-state-forest/
p1928
aVhttp://www.traveltex.com/activities/silent-wings-museum/
p1929
aVhttp://www.traveltex.com/activities/silsbee-country-club/
p1930
aVhttp://www.traveltex.com/activities/silverhorn-golf-club/
p1931
aVhttp://www.traveltex.com/activities/six-flags-fiesta-texas/
p1932
aVhttp://www.traveltex.com/activities/six-flags-hurricane-harbor-1/
p1933
aVhttp://www.traveltex.com/activities/six-flags-over-texas/
p1934
aVhttp://www.traveltex.com/activities/the-sixth-floor-museum/
p1935
aVhttp://www.traveltex.com/activities/sky-theater-at-the-university-of-north-texas/
p1936
aVhttp://www.traveltex.com/activities/skydive-dallas/
p1937
aVhttp://www.traveltex.com/activities/slaton-museum/
p1938
aVhttp://www.traveltex.com/activities/smith-county-historical-societys-museum-archives/
p1939
aVhttp://www.traveltex.com/activities/smithfield/
p1940
aVhttp://www.traveltex.com/activities/smittys-juke-box-museum/
p1941
aVhttp://www.traveltex.com/activities/snake-farm/
p1942
aVhttp://www.traveltex.com/activities/snake-house/
p1943
aVhttp://www.traveltex.com/activities/snyder-country-club/
p1944
aVhttp://www.traveltex.com/activities/somervell-county-historical-museum/
p1945
aVhttp://www.traveltex.com/activities/somerville-historical-museum/
p1946
aVhttp://www.traveltex.com/activities/sonora-golf-club/
p1947
aVhttp://www.traveltex.com/activities/sophienburg-museum/
p1948
aVhttp://www.traveltex.com/activities/south-congress/
p1949
aVhttp://www.traveltex.com/activities/south-dallas-cultural-center/
p1950
aVhttp://www.traveltex.com/activities/south-llano-river-state-park/
p1951
aVhttp://www.traveltex.com/activities/south-plains-college-art-museum/
p1952
aVhttp://www.traveltex.com/activities/south-shore-harbour-country-club-harbour-course/
p1953
aVhttp://www.traveltex.com/activities/south-shore-harbour-country-club-shore-course/
p1954
aVhttp://www.traveltex.com/activities/south-shore-harbour-country-club-south-course/
p1955
aVhttp://www.traveltex.com/activities/south-texas-botanical-gardens-nature-center/
p1956
aVhttp://www.traveltex.com/activities/south-texas-maize/
p1957
aVhttp://www.traveltex.com/activities/southern-hills-golf-club/
p1958
aVhttp://www.traveltex.com/activities/southern-oaks-golf-club/
p1959
aVhttp://www.traveltex.com/activities/southern-pacific-railroad-depot/
p1960
aVhttp://www.traveltex.com/activities/southfork-ranch-(1)/
p1961
aVhttp://www.traveltex.com/activities/southwest-dairy-center/
p1962
aVhttp://www.traveltex.com/activities/southwest-school-of-art-and-craft/
p1963
aVhttp://www.traveltex.com/activities/southwyck-golf-club/
p1964
aVhttp://www.traveltex.com/activities/spanish-governors-palace/
p1965
aVhttp://www.traveltex.com/activities/spindletopgladys-city-boomtown-museum/
p1966
aVhttp://www.traveltex.com/activities/splash-amarillo/
p1967
aVhttp://www.traveltex.com/activities/splash-kingdom/
p1968
aVhttp://www.traveltex.com/activities/splash-into-the-edwards-aquifer/
p1969
aVhttp://www.traveltex.com/activities/splashtown-houston/
p1970
aVhttp://www.traveltex.com/activities/splashtownsan-antonio/
p1971
aVhttp://www.traveltex.com/activities/spoetzl-brewery/
p1972
aVhttp://www.traveltex.com/activities/spring-creek-country-club/
p1973
aVhttp://www.traveltex.com/activities/spring-historical-museum/
p1974
aVhttp://www.traveltex.com/activities/square-house-museum/
p1975
aVhttp://www.traveltex.com/activities/squaw-valley-golf-course-apache-links-course/
p1976
aVhttp://www.traveltex.com/activities/sri-meenakshi-temple/
p1977
aVhttp://www.traveltex.com/activities/st-francis-episcopal-church/
p1978
aVhttp://www.traveltex.com/activities/st-joseph-school-museum/
p1979
aVhttp://www.traveltex.com/activities/st-josephs-catholic-church/
p1980
aVhttp://www.traveltex.com/activities/st-louis-catholic-church/
p1981
aVhttp://www.traveltex.com/activities/st-marys-cathedral/
p1982
aVhttp://www.traveltex.com/activities/st-marys-catholic-church/
p1983
aVhttp://www.traveltex.com/activities/st-marys-catholic-church-(1)/
p1984
aVhttp://www.traveltex.com/activities/stafford-bank-and-opera-house-building/
p1985
aVhttp://www.traveltex.com/activities/stagecoach-inn/
p1986
aVhttp://www.traveltex.com/activities/stamford-golf-and-country-club/
p1987
aVhttp://www.traveltex.com/activities/stanlee-and-gerald-rubin-center-for-visual-arts/
p1988
aVhttp://www.traveltex.com/activities/stanzel-model-aircraft-museum/
p1989
aVhttp://www.traveltex.com/activities/star-of-the-republic-museum/
p1990
aVhttp://www.traveltex.com/activities/stark-museum-of-art/
p1991
aVhttp://www.traveltex.com/activities/starr-family-home-state-historic-site/
p1992
aVhttp://www.traveltex.com/activities/state-capitol-complex/
p1993
aVhttp://www.traveltex.com/activities/state-fair-of-texas/
p1994
aVhttp://www.traveltex.com/activities/stationmasters-house-museum/
p1995
aVhttp://www.traveltex.com/activities/steadman-island/
p1996
aVhttp://www.traveltex.com/activities/steinbach-house/
p1997
aVhttp://www.traveltex.com/activities/stephen-f-austin-golf-club/
p1998
aVhttp://www.traveltex.com/activities/stephen-f-austin-mast-arboretum/
p1999
aVhttp://www.traveltex.com/activities/stephen-f-austin-state-park/
p2000
aVhttp://www.traveltex.com/activities/stephen-f-austin-statue/
p2001
aVhttp://www.traveltex.com/activities/sterling-country-club/
p2002
aVhttp://www.traveltex.com/activities/sternehoya-house-museum-library/
p2003
aVhttp://www.traveltex.com/activities/stevens-park-golf-club/
p2004
aVhttp://www.traveltex.com/activities/the-steves-homestead/
p2005
aVhttp://www.traveltex.com/activities/stevie-ray-vaughan-memorial/
p2006
aVhttp://www.traveltex.com/activities/stewart-peninsula-golf-course/
p2007
aVhttp://www.traveltex.com/activities/stockyards-championship-rodeo/
p2008
aVhttp://www.traveltex.com/activities/stockyards-museum/
p2009
aVhttp://www.traveltex.com/activities/stockyards-national-historic-district/
p2010
aVhttp://www.traveltex.com/activities/stockyards-station/
p2011
aVhttp://www.traveltex.com/activities/stonebriar-country-club-country-club-course/
p2012
aVhttp://www.traveltex.com/activities/stonebridge-ranch-country-club-dye-course/
p2013
aVhttp://www.traveltex.com/activities/stonebridge-ranch-country-club-hills-course/
p2014
aVhttp://www.traveltex.com/activities/stonehenge-in-the-hills-(1)/
p2015
aVhttp://www.traveltex.com/activities/stonehenge-replica/
p2016
aVhttp://www.traveltex.com/activities/stonetree-golf-club/
p2017
aVhttp://www.traveltex.com/activities/stoney-ridge-golf-course/
p2018
aVhttp://www.traveltex.com/activities/stratford-country-club/
p2019
aVhttp://www.traveltex.com/activities/stroud-blacksmith-shop/
p2020
aVhttp://www.traveltex.com/activities/stuermer-store/
p2021
aVhttp://www.traveltex.com/activities/sul-ross-state-university-museum-of-the-big-bend/
p2022
aVhttp://www.traveltex.com/activities/sulphur-springs-country-club/
p2023
aVhttp://www.traveltex.com/activities/summer-fun-usa/
p2024
aVhttp://www.traveltex.com/activities/sundance-square-downtown-entertainment-district/
p2025
aVhttp://www.traveltex.com/activities/sunday-houses/
p2026
aVhttp://www.traveltex.com/activities/sunset-country-club/
p2027
aVhttp://www.traveltex.com/activities/sunset-golf-club/
p2028
aVhttp://www.traveltex.com/activities/sunset-grove-country-club/
p2029
aVhttp://www.traveltex.com/activities/sunset-lake-park/
p2030
aVhttp://www.traveltex.com/activities/surfside-beach/
p2031
aVhttp://www.traveltex.com/activities/swann-hotel/
p2032
aVhttp://www.traveltex.com/activities/sweet-berry-farm/
p2033
aVhttp://www.traveltex.com/activities/sweet-shop-usa-chocolate-factory-tour/
p2034
aVhttp://www.traveltex.com/activities/sweetwater-country-club/
p2035
aVhttp://www.traveltex.com/activities/swenson-memorial-museum-and-jd-sandefer-oil-annex/
p2036
aVhttp://www.traveltex.com/activities/swisher-county-archives-and-museum/
p2037
aVhttp://www.traveltex.com/activities/sycamore-creek-golf-course/
p2038
aVhttp://www.traveltex.com/activities/sylvan-beach-park-(1)/
p2039
aVhttp://www.traveltex.com/activities/tbar-country-club/
p2040
aVhttp://www.traveltex.com/activities/tc-lindsey-co/
p2041
aVhttp://www.traveltex.com/activities/taft-blackland-museum/
p2042
aVhttp://www.traveltex.com/activities/tales-n-trails-museum/
p2043
aVhttp://www.traveltex.com/activities/tandy-archaeological-museum-a-webb-roberts-library/
p2044
aVhttp://www.traveltex.com/activities/tangle-ridge-golf-club/
p2045
aVhttp://www.traveltex.com/activities/tanglewood-resort/
p2046
aVhttp://www.traveltex.com/activities/tapatio-springs-resort-lakes-course/
p2047
aVhttp://www.traveltex.com/activities/tapatio-springs-resort-ridge-course/
p2048
aVhttp://www.traveltex.com/activities/tapatio-springs-resort-valley-course/
p2049
aVhttp://www.traveltex.com/activities/tascosa-country-club-la-paloma-course/
p2050
aVhttp://www.traveltex.com/activities/tascosa-country-club-tascosa-course/
p2051
aVhttp://www.traveltex.com/activities/tehuacana-hills/
p2052
aVhttp://www.traveltex.com/activities/tejano-walk-of-fame/
p2053
aVhttp://www.traveltex.com/activities/tejas-golf-course/
p2054
aVhttp://www.traveltex.com/activities/temple-bethel/
p2055
aVhttp://www.traveltex.com/activities/temple-college-golf-course/
p2056
aVhttp://www.traveltex.com/activities/tenison-park-golf-course-tenison-glen-course/
p2057
aVhttp://www.traveltex.com/activities/teravista-golf-club/
p2058
aVhttp://www.traveltex.com/activities/terrell-county-memorial-museum/
p2059
aVhttp://www.traveltex.com/activities/terrell-heritage-museum/
p2060
aVhttp://www.traveltex.com/activities/terrill-antique-car-museum/
p2061
aVhttp://www.traveltex.com/activities/terry-county-heritage-museum/
p2062
aVhttp://www.traveltex.com/activities/texark-antique-auto-museum/
p2063
aVhttp://www.traveltex.com/activities/texaco-country-club/
p2064
aVhttp://www.traveltex.com/activities/texana-museum-and-old-jail-house/
p2065
aVhttp://www.traveltex.com/activities/texarkana-golf-ranch/
p2066
aVhttp://www.traveltex.com/activities/texarkana-museum-of-regional-history/
p2067
aVhttp://www.traveltex.com/activities/texas/
p2068
aVhttp://www.traveltex.com/activities/texas-am-lettermens-association-athletic-sports-museum/
p2069
aVhttp://www.traveltex.com/activities/texas-am-university/
p2070
aVhttp://www.traveltex.com/activities/texas-agriculture-experiment-station/
p2071
aVhttp://www.traveltex.com/activities/texas-air-museum-caprock-chapter/
p2072
aVhttp://www.traveltex.com/activities/texas-alligator-ranch/
p2073
aVhttp://www.traveltex.com/activities/texas-artists-museum/
p2074
aVhttp://www.traveltex.com/activities/texas-baptist-historical-center/
p2075
aVhttp://www.traveltex.com/activities/texas-bbq-trail/
p2076
aVhttp://www.traveltex.com/activities/texas-championship-domino-hall-of-fame-and-texas-fiddlers-hall-of-fame/
p2077
aVhttp://www.traveltex.com/activities/texas-city-museum/
p2078
aVhttp://www.traveltex.com/activities/texas-civil-war-museum/
p2079
aVhttp://www.traveltex.com/activities/texas-cotton-gin-museum/
p2080
aVhttp://www.traveltex.com/activities/texas-country-music-hall-of-fame-and-tex-ritter-museum/
p2081
aVhttp://www.traveltex.com/activities/texas-cowboy-hall-of-fame/
p2082
aVhttp://www.traveltex.com/activities/texas-czech-heritage-and-cultural-center/
p2083
aVhttp://www.traveltex.com/activities/texas-department-of-criminal-justice-institutional-division/
p2084
aVhttp://www.traveltex.com/activities/texas-discovery-gardens/
p2085
aVhttp://www.traveltex.com/activities/texas-energy-museum/
p2086
aVhttp://www.traveltex.com/activities/texas-forestry-museum/
p2087
aVhttp://www.traveltex.com/activities/texas-freshwater-fisheries-center/
p2088
aVhttp://www.traveltex.com/activities/texas-heritage-museum/
p2089
aVhttp://www.traveltex.com/activities/texas-heroes-monument/
p2090
aVhttp://www.traveltex.com/activities/texas-lutheran-university/
p2091
aVhttp://www.traveltex.com/activities/texas-maritime-museum/
p2092
aVhttp://www.traveltex.com/activities/texas-memorial-museum/
p2093
aVhttp://www.traveltex.com/activities/texas-military-forces-museum/
p2094
aVhttp://www.traveltex.com/activities/texas-motor-speedway/
p2095
aVhttp://www.traveltex.com/activities/texas-motorplex/
p2096
aVhttp://www.traveltex.com/activities/texas-pioneer-trail/
p2097
aVhttp://www.traveltex.com/activities/texas-polka-music-museum/
p2098
aVhttp://www.traveltex.com/activities/texas-prison-museum/
p2099
aVhttp://www.traveltex.com/activities/texas-quilt-museum/
p2100
aVhttp://www.traveltex.com/activities/texas-ranger-hall-of-fame-and-museum/
p2101
aVhttp://www.traveltex.com/activities/texas-sculpture-garden/
p2102
aVhttp://www.traveltex.com/activities/texas-seaport-museum/
p2103
aVhttp://www.traveltex.com/activities/texas-ski-ranch/
p2104
aVhttp://www.traveltex.com/activities/texas-sports-hall-of-fame/
p2105
aVhttp://www.traveltex.com/activities/texas-star-golf-course/
p2106
aVhttp://www.traveltex.com/activities/texas-star-trail-the/
p2107
aVhttp://www.traveltex.com/activities/texas-state-aquarium/
p2108
aVhttp://www.traveltex.com/activities/texas-state-cemetery/
p2109
aVhttp://www.traveltex.com/activities/texas-state-golf-course/
p2110
aVhttp://www.traveltex.com/activities/texas-state-library/
p2111
aVhttp://www.traveltex.com/activities/texas-surf-museum/
p2112
aVhttp://www.traveltex.com/activities/texas-transportation-museum/
p2113
aVhttp://www.traveltex.com/activities/texas-travel-information-center/
p2114
aVhttp://www.traveltex.com/activities/texas-travel-information-center-(1)/
p2115
aVhttp://www.traveltex.com/activities/texas-travel-information-center-(2)/
p2116
aVhttp://www.traveltex.com/activities/texas-travel-information-center-(3)/
p2117
aVhttp://www.traveltex.com/activities/texas-travel-information-center-(4)/
p2118
aVhttp://www.traveltex.com/activities/texas-travel-information-center-(5)/
p2119
aVhttp://www.traveltex.com/activities/texas-travel-information-center-(6)/
p2120
aVhttp://www.traveltex.com/activities/texas-travel-information-center-(7)/
p2121
aVhttp://www.traveltex.com/activities/texas-travel-information-center-(9)/
p2122
aVhttp://www.traveltex.com/activities/texas-womans-university-golf-course/
p2123
aVhttp://www.traveltex.com/activities/texas-last-frontier-museum-(1)/
p2124
aVhttp://www.traveltex.com/activities/thanksgiving-square/
p2125
aVhttp://www.traveltex.com/activities/the-1st-cavalry-division-museum/
p2126
aVhttp://www.traveltex.com/activities/the-aquarium-at-rockport-harbor/
p2127
aVhttp://www.traveltex.com/activities/the-bandit-golf-club/
p2128
aVhttp://www.traveltex.com/activities/the-buckhorn-golf-course/
p2129
aVhttp://www.traveltex.com/activities/the-cascades-golf-club/
p2130
aVhttp://www.traveltex.com/activities/the-center-for-contemporary-arts/
p2131
aVhttp://www.traveltex.com/activities/the-center-for-earth-space-science-education/
p2132
aVhttp://www.traveltex.com/activities/the-challenge-at-gladewater/
p2133
aVhttp://www.traveltex.com/activities/the-challenge-at-oak-forest-country-club/
p2134
aVhttp://www.traveltex.com/activities/the-challenge-at-the-woods/
p2135
aVhttp://www.traveltex.com/activities/the-citadelle-art-foundation/
p2136
aVhttp://www.traveltex.com/activities/the-club-at-concan/
p2137
aVhttp://www.traveltex.com/activities/the-clubs-of-cordillera-ranch-/
p2138
aVhttp://www.traveltex.com/activities/the-cross/
p2139
aVhttp://www.traveltex.com/activities/the-cullen-sculpture-garden/
p2140
aVhttp://www.traveltex.com/activities/the-driskill-hotel/
p2141
aVhttp://www.traveltex.com/activities/the-gladewater-museum/
p2142
aVhttp://www.traveltex.com/activities/the-golf-club-star-ranch/
p2143
aVhttp://www.traveltex.com/activities/the-grace-museum/
p2144
aVhttp://www.traveltex.com/activities/the-heritage-society-at-sam-houston-park/
p2145
aVhttp://www.traveltex.com/activities/the-heritage-society-museum-gallery/
p2146
aVhttp://www.traveltex.com/activities/the-hideout-at-feather-bay/
p2147
aVhttp://www.traveltex.com/activities/the-hiller-house/
p2148
aVhttp://www.traveltex.com/activities/the-littlest-skyscraper/
p2149
aVhttp://www.traveltex.com/activities/the-luling-foundation/
p2150
aVhttp://www.traveltex.com/activities/the-menil-collection/
p2151
aVhttp://www.traveltex.com/activities/the-museum-of-student-life/
p2152
aVhttp://www.traveltex.com/activities/the-museums-of-san-benito/
p2153
aVhttp://www.traveltex.com/activities/the-old-jail-art-center/
p2154
aVhttp://www.traveltex.com/activities/the-port-aransas-wetlands-habitat-park/
p2155
aVhttp://www.traveltex.com/activities/the-post/
p2156
aVhttp://www.traveltex.com/activities/the-presidential-archives-and-leadership-library/
p2157
aVhttp://www.traveltex.com/activities/the-promise/
p2158
aVhttp://www.traveltex.com/activities/the-quarry-golf-club/
p2159
aVhttp://www.traveltex.com/activities/the-rawls-course-at-texas-tech-/
p2160
aVhttp://www.traveltex.com/activities/the-republic-golf-club/
p2161
aVhttp://www.traveltex.com/activities/the-retreat-golf-course/
p2162
aVhttp://www.traveltex.com/activities/the-sherman-museum/
p2163
aVhttp://www.traveltex.com/activities/the-shrine-of-the-three-chapels/
p2164
aVhttp://www.traveltex.com/activities/the-strand/
p2165
aVhttp://www.traveltex.com/activities/the-texas-trail-of-fame/
p2166
aVhttp://www.traveltex.com/activities/the-texas-zoo/
p2167
aVhttp://www.traveltex.com/activities/the-university-of-texas/
p2168
aVhttp://www.traveltex.com/activities/the-woodlands-childrens-museum/
p2169
aVhttp://www.traveltex.com/activities/the-woodlands-country-club-palmer-course/
p2170
aVhttp://www.traveltex.com/activities/the-woodlands-country-club-player-course/
p2171
aVhttp://www.traveltex.com/activities/the-woodlands-country-club-tournament-course/
p2172
aVhttp://www.traveltex.com/activities/theater/
p2173
aVhttp://www.traveltex.com/activities/theater-district/
p2174
aVhttp://www.traveltex.com/activities/thistle-hill/
p2175
aVhttp://www.traveltex.com/activities/thomas-crees-little-tree/
p2176
aVhttp://www.traveltex.com/activities/throckmorton-country-club/
p2177
aVhttp://www.traveltex.com/activities/throckmorton-county-history-museum/
p2178
aVhttp://www.traveltex.com/activities/tierra-del-sol-golf-course/
p2179
aVhttp://www.traveltex.com/activities/tierra-santa-golf-club/
p2180
aVhttp://www.traveltex.com/activities/tierra-verde-golf-club/
p2181
aVhttp://www.traveltex.com/activities/tiger-creek-wildlife-refuge/
p2182
aVhttp://www.traveltex.com/activities/tigua-indian-reservation-ysleta-del-sur-pueblo/
p2183
aVhttp://www.traveltex.com/activities/timberview-golf-club/
p2184
aVhttp://www.traveltex.com/activities/titus-county-park/
p2185
aVhttp://www.traveltex.com/activities/tom-burnett-memorial-library/
p2186
aVhttp://www.traveltex.com/activities/tom-landry-mural/
p2187
aVhttp://www.traveltex.com/activities/tony-butler-municipal-golf-course/
p2188
aVhttp://www.traveltex.com/activities/topsey-exotic-ranch-and-drivethrough-safari/
p2189
aVhttp://www.traveltex.com/activities/tour-18-dallas/
p2190
aVhttp://www.traveltex.com/activities/tour-18-houston/
p2191
aVhttp://www.traveltex.com/activities/tours/
p2192
aVhttp://www.traveltex.com/activities/tower-of-the-americas/
p2193
aVhttp://www.traveltex.com/activities/toyota-center/
p2194
aVhttp://www.traveltex.com/activities/traders-village/
p2195
aVhttp://www.traveltex.com/activities/traders-village-(1)/
p2196
aVhttp://www.traveltex.com/activities/trails-tales-of-boomtown-usa/
p2197
aVhttp://www.traveltex.com/activities/trails-of-frisco-golf-club/
p2198
aVhttp://www.traveltex.com/activities/tranquility-park/
p2199
aVhttp://www.traveltex.com/activities/travel-information-center/
p2200
aVhttp://www.traveltex.com/activities/treasure-hills-golf-club/
p2201
aVhttp://www.traveltex.com/activities/treasures-of-the-gulf-museum/
p2202
aVhttp://www.traveltex.com/activities/tribute-golf-club/
p2203
aVhttp://www.traveltex.com/activities/trinity-episcopal-church/
p2204
aVhttp://www.traveltex.com/activities/trolley-cars/
p2205
aVhttp://www.traveltex.com/activities/tropic-star-rv-resort-golf-course/
p2206
aVhttp://www.traveltex.com/activities/tule-lake-golf-club/
p2207
aVhttp://www.traveltex.com/activities/tunis-creek-stagecoach-stop/
p2208
aVhttp://www.traveltex.com/activities/turning-basin-river-boat/
p2209
aVhttp://www.traveltex.com/activities/turtle-hill-golf-course/
p2210
aVhttp://www.traveltex.com/activities/twin-creeks-country-club/
p2211
aVhttp://www.traveltex.com/activities/twin-lakes-golf-course/
p2212
aVhttp://www.traveltex.com/activities/twin-wells-golf-course/
p2213
aVhttp://www.traveltex.com/activities/tyler-museum-of-art/
p2214
aVhttp://www.traveltex.com/activities/tyler-rose-museum/
p2215
aVhttp://www.traveltex.com/activities/tyler-state-park/
p2216
aVhttp://www.traveltex.com/activities/tyrrell-historical-library/
p2217
aVhttp://www.traveltex.com/activities/tyrrell-park/
p2218
aVhttp://www.traveltex.com/activities/udrop-inn/
p2219
aVhttp://www.traveltex.com/activities/us-army-medical-department-museum/
p2220
aVhttp://www.traveltex.com/activities/us-naval-air-station/
p2221
aVhttp://www.traveltex.com/activities/us-veterans-museum/
p2222
aVhttp://www.traveltex.com/activities/umlauf-sculpture-garden/
p2223
aVhttp://www.traveltex.com/activities/underwood-golf-complex-at-fort-bliss-military-reservation-sunrise-course/
p2224
aVhttp://www.traveltex.com/activities/underwood-golf-complex-at-fort-bliss-military-reservation-sunset-course/
p2225
aVhttp://www.traveltex.com/activities/union-station-transportation-museum/
p2226
aVhttp://www.traveltex.com/activities/university-of-texas-golf-club/
p2227
aVhttp://www.traveltex.com/activities/university-of-texas-institute-of-texan-cultures-at-san-antonio/
p2228
aVhttp://www.traveltex.com/activities/university-of-texas-marine-science-institute/
p2229
aVhttp://www.traveltex.com/activities/university-of-texas-mcdonald-observatory-at-mount-locke/
p2230
aVhttp://www.traveltex.com/activities/unt-art-path/
p2231
aVhttp://www.traveltex.com/activities/upshur-county-library/
p2232
aVhttp://www.traveltex.com/activities/uss-lexington-museum-on-the-bay/
p2233
aVhttp://www.traveltex.com/activities/ut-tower/
p2234
aVhttp://www.traveltex.com/activities/utd-history-of-aviation-collection/
p2235
aVhttp://www.traveltex.com/activities/utpa-art-galleries/
p2236
aVhttp://www.traveltex.com/activities/uvalde-memorial-park-golf-course/
p2237
aVhttp://www.traveltex.com/activities/valley-international-country-club/
p2238
aVhttp://www.traveltex.com/activities/valley-nature-center/
p2239
aVhttp://www.traveltex.com/activities/van-alstyne-historical-museum/
p2240
aVhttp://www.traveltex.com/activities/van-area-oil-and-historical-museum/
p2241
aVhttp://www.traveltex.com/activities/van-zandt-country-club/
p2242
aVhttp://www.traveltex.com/activities/van-zandt-county-veterans-memorial-plaza/
p2243
aVhttp://www.traveltex.com/activities/van-zandt-genealogy-history-library/
p2244
aVhttp://www.traveltex.com/activities/vanishing-texas-river-cruise/
p2245
aVhttp://www.traveltex.com/activities/varnerhogg-plantation-state-historic-site/
p2246
aVhttp://www.traveltex.com/activities/vereins-kirche/
p2247
aVhttp://www.traveltex.com/activities/veterans-memorial-park/
p2248
aVhttp://www.traveltex.com/activities/veterans-war-memorial/
p2249
aVhttp://www.traveltex.com/activities/veterans-memorial-park-(1)/
p2250
aVhttp://www.traveltex.com/activities/veterans-museum-of-texashearts/
p2251
aVhttp://www.traveltex.com/activities/veterans-of-all-wars-pioneer-ranch-women-museum/
p2252
aVhttp://www.traveltex.com/activities/via-streetcars/
p2253
aVhttp://www.traveltex.com/activities/victoria-country-club/
p2254
aVhttp://www.traveltex.com/activities/victoria-county-courthouse/
p2255
aVhttp://www.traveltex.com/activities/victoria-educational-gardens/
p2256
aVhttp://www.traveltex.com/activities/victoria-fine-arts-center/
p2257
aVhttp://www.traveltex.com/activities/vietnam-and-korean-veterans-memorial/
p2258
aVhttp://www.traveltex.com/activities/vietnam-center-and-archives/
p2259
aVhttp://www.traveltex.com/activities/vietnam-veterans-memorial/
p2260
aVhttp://www.traveltex.com/activities/village-executive-golf-course/
p2261
aVhttp://www.traveltex.com/activities/vintage-farm-equipment-museum/
p2262
aVhttp://www.traveltex.com/activities/vintage-flying-museum/
p2263
aVhttp://www.traveltex.com/activities/vista-hills-country-club/
p2264
aVhttp://www.traveltex.com/activities/viva-el-paso/
p2265
aVhttp://www.traveltex.com/activities/voyage-a-journey-through-our-solar-system/
p2266
aVhttp://www.traveltex.com/activities/wh-stark-house/
p2267
aVhttp://www.traveltex.com/activities/wk-gordon-center-for-industrial-history-of-texas/
p2268
aVhttp://www.traveltex.com/activities/wm-wright-historical-park/
p2269
aVhttp://www.traveltex.com/activities/waco-mammoth-site/
p2270
aVhttp://www.traveltex.com/activities/waco-suspension-bridge/
p2271
aVhttp://www.traveltex.com/activities/wagenfuehr-home-and-buckhorn-barbershop-museum/
p2272
aVhttp://www.traveltex.com/activities/walden-on-lake-conroe-golf-club/
p2273
aVhttp://www.traveltex.com/activities/walden-on-lake-houston/
p2274
aVhttp://www.traveltex.com/activities/walking-tour/
p2275
aVhttp://www.traveltex.com/activities/walking-tours/
p2276
aVhttp://www.traveltex.com/activities/walking-tours-(1)/
p2277
aVhttp://www.traveltex.com/activities/walkingdriving-tour/
p2278
aVhttp://www.traveltex.com/activities/waller-county-historical-museum/
p2279
aVhttp://www.traveltex.com/activities/walnut-creek-country-club-oak-course/
p2280
aVhttp://www.traveltex.com/activities/walnut-springs-memorial-rose-garden/
p2281
aVhttp://www.traveltex.com/activities/walter-williams-grave/
p2282
aVhttp://www.traveltex.com/activities/ward-county-golf-course/
p2283
aVhttp://www.traveltex.com/activities/washingtononthebrazos-state-historic-site-(3)/
p2284
aVhttp://www.traveltex.com/activities/water-gardens/
p2285
aVhttp://www.traveltex.com/activities/watermelon-statue/
p2286
aVhttp://www.traveltex.com/activities/watkins-wildlife-trophy-room/
p2287
aVhttp://www.traveltex.com/activities/waxahachie-country-club/
p2288
aVhttp://www.traveltex.com/activities/weechitah-sculpture/
p2289
aVhttp://www.traveltex.com/activities/weeks-park-golf-course/
p2290
aVhttp://www.traveltex.com/activities/weimar-golf-club/
p2291
aVhttp://www.traveltex.com/activities/weimar-heritage-society-museum/
p2292
aVhttp://www.traveltex.com/activities/welder-wildlife-refuge/
p2293
aVhttp://www.traveltex.com/activities/wellington-country-club/
p2294
aVhttp://www.traveltex.com/activities/weslaco-museum/
p2295
aVhttp://www.traveltex.com/activities/west-bay-common-school-museum-(1)/
p2296
aVhttp://www.traveltex.com/activities/west-end-historic-district/
p2297
aVhttp://www.traveltex.com/activities/westcave-preserve-(1)/
p2298
aVhttp://www.traveltex.com/activities/westdale-hills-golf-course/
p2299
aVhttp://www.traveltex.com/activities/westridge-golf-course/
p2300
aVhttp://www.traveltex.com/activities/westwood-golf-club/
p2301
aVhttp://www.traveltex.com/activities/wet-n-wild-water-world-(1)/
p2302
aVhttp://www.traveltex.com/activities/wharton-country-club/
p2303
aVhttp://www.traveltex.com/activities/wharton-county-historical-museum/
p2304
aVhttp://www.traveltex.com/activities/whataburger-field/
p2305
aVhttp://www.traveltex.com/activities/white-bluff-resort-new-course/
p2306
aVhttp://www.traveltex.com/activities/white-buffalo-statue/
p2307
aVhttp://www.traveltex.com/activities/white-deer-land-museum/
p2308
aVhttp://www.traveltex.com/activities/white-haven/
p2309
aVhttp://www.traveltex.com/activities/whitehead-memorial-museum/
p2310
aVhttp://www.traveltex.com/activities/whitesboro-water-well/
p2311
aVhttp://www.traveltex.com/activities/whitewright-historical-museum-nature-park/
p2312
aVhttp://www.traveltex.com/activities/wichita-brazos-museum-and-cultural-center/
p2313
aVhttp://www.traveltex.com/activities/wichita-falls-country-club/
p2314
aVhttp://www.traveltex.com/activities/wichita-falls-waterfall/
p2315
aVhttp://www.traveltex.com/activities/wichita-theatre-performing-arts-center/
p2316
aVhttp://www.traveltex.com/activities/wild-basin-preserve/
p2317
aVhttp://www.traveltex.com/activities/wildcat-bluff-nature-center/
p2318
aVhttp://www.traveltex.com/activities/wildcat-golf-club-highlands-course/
p2319
aVhttp://www.traveltex.com/activities/wildcat-golf-club-lakes-course/
p2320
aVhttp://www.traveltex.com/activities/wilderness-park/
p2321
aVhttp://www.traveltex.com/activities/wildflower-country-club/
p2322
aVhttp://www.traveltex.com/activities/wildhorse-golf-club-/
p2323
aVhttp://www.traveltex.com/activities/wildlife-art-museum/
p2324
aVhttp://www.traveltex.com/activities/wildseed-farms/
p2325
aVhttp://www.traveltex.com/activities/willacy-county-art-league-gallery/
p2326
aVhttp://www.traveltex.com/activities/willacy-county-historical-museum/
p2327
aVhttp://www.traveltex.com/activities/willow-brook-country-club/
p2328
aVhttp://www.traveltex.com/activities/willow-creek-golf-course/
p2329
aVhttp://www.traveltex.com/activities/willow-fork-country-club/
p2330
aVhttp://www.traveltex.com/activities/willow-springs-golf-course-(1)/
p2331
aVhttp://www.traveltex.com/activities/wilson-county-courthouse/
p2332
aVhttp://www.traveltex.com/activities/wilson-county-jailhouse-museum/
p2333
aVhttp://www.traveltex.com/activities/wilson-historic-district-walking-tour/
p2334
aVhttp://www.traveltex.com/activities/wimberley-glass-works/
p2335
aVhttp://www.traveltex.com/activities/wind-creek-golf-course-at-sheppard-air-force-base/
p2336
aVhttp://www.traveltex.com/activities/windcrest-golf-club/
p2337
aVhttp://www.traveltex.com/activities/windmill-museum/
p2338
aVhttp://www.traveltex.com/activities/window-on-the-plains/
p2339
aVhttp://www.traveltex.com/activities/windrose-golf-club/
p2340
aVhttp://www.traveltex.com/activities/wineburgh-philatelic-research-library/
p2341
aVhttp://www.traveltex.com/activities/winedale-historical-center/
p2342
aVhttp://www.traveltex.com/activities/winkler-county-golf-course/
p2343
aVhttp://www.traveltex.com/activities/winters-country-club/
p2344
aVhttp://www.traveltex.com/activities/wired-zipline-challenge-course/
p2345
aVhttp://www.traveltex.com/activities/wise-county-courthouse/
p2346
aVhttp://www.traveltex.com/activities/wise-county-heritage-museum/
p2347
aVhttp://www.traveltex.com/activities/witness-park-and-prayer-tower/
p2348
aVhttp://www.traveltex.com/activities/witte-museum/
p2349
aVhttp://www.traveltex.com/activities/wittliff-collections/
p2350
aVhttp://www.traveltex.com/activities/wolf-creek-golf-links/
p2351
aVhttp://www.traveltex.com/activities/wolf-creek-heritage-museum/
p2352
aVhttp://www.traveltex.com/activities/wolf-creek-park/
p2353
aVhttp://www.traveltex.com/activities/wolfdancer-golf-club/
p2354
aVhttp://www.traveltex.com/activities/wonder-world/
p2355
aVhttp://www.traveltex.com/activities/wonderland-amusement-park/
p2356
aVhttp://www.traveltex.com/activities/wood-hollow-golf-club/
p2357
aVhttp://www.traveltex.com/activities/woodbine-hotel-and-museum/
p2358
aVhttp://www.traveltex.com/activities/woodforest-golf-club-back-course/
p2359
aVhttp://www.traveltex.com/activities/woodforest-golf-club-front-course/
p2360
aVhttp://www.traveltex.com/activities/woodforest-golf-club-west-course/
p2361
aVhttp://www.traveltex.com/activities/woodhaven-country-club/
p2362
aVhttp://www.traveltex.com/activities/woodlake-golf-club/
p2363
aVhttp://www.traveltex.com/activities/woodland-hills-golf-club/
p2364
aVhttp://www.traveltex.com/activities/woodlawn-country-club/
p2365
aVhttp://www.traveltex.com/activities/world-birding-center-headquarters/
p2366
aVhttp://www.traveltex.com/activities/world-war-ii-family-internment-c/
p2367
aVhttp://www.traveltex.com/activities/worlds-largest-jackrabbit/
p2368
aVhttp://www.traveltex.com/activities/worlds-largest-strawberry/
p2369
aVhttp://www.traveltex.com/activities/worlds-richest-acre-park/
p2370
aVhttp://www.traveltex.com/activities/wright-park-municipal-golf-course/
p2371
aVhttp://www.traveltex.com/activities/wyler-aerial-tramway/
p2372
aVhttp://www.traveltex.com/activities/xit-historical-museum/
p2373
aVhttp://www.traveltex.com/activities/yoakum-city-golf-course/
p2374
aVhttp://www.traveltex.com/activities/yoakum-county-golf-course/
p2375
aVhttp://www.traveltex.com/activities/yorktown-country-club/
p2376
aVhttp://www.traveltex.com/activities/yorktown-historical-museum/
p2377
aVhttp://www.traveltex.com/activities/young-county-veterans-memorial/
p2378
aVhttp://www.traveltex.com/activities/yucca-theatre/
p2379
aVhttp://www.traveltex.com/activities/z-boaz-golf-course/
p2380
aVhttp://www.traveltex.com/activities/zi-hale-museum/
p2381
aVhttp://www.traveltex.com/activities/zachary-taylor-park/
p2382
aVhttp://www.traveltex.com/activities/zaner-robison-historical-museum/
p2383
aVhttp://www.traveltex.com/activities/zapata-county-museum-of-history/
p2384
aVhttp://www.traveltex.com/activities/zaragoza-birthplace-state-historic-site/
p2385
aVhttp://www.traveltex.com/activities/zedler-mill/
p2386
aVhttp://www.traveltex.com/activities/zilker-botanical-garden/
p2387
aVhttp://www.traveltex.com/activities/zilker-park/
p2388
aVhttp://www.traveltex.com/activities/nave-museum-1/
p2389
aVhttp://www.traveltex.com/activities/lake-abilene-1/
p2390
aVhttp://www.traveltex.com/activities/lake-fort-phantom-hill-1/
p2391
aVhttp://www.traveltex.com/activities/lake-findley/
p2392
aVhttp://www.traveltex.com/activities/tejano-roots-hall-of-fame-museum-4/
p2393
aVhttp://www.traveltex.com/activities/the-south-texas-museum-4/
p2394
aVhttp://www.traveltex.com/activities/allen-station-park-4/
p2395
aVhttp://www.traveltex.com/activities/hydrous-wake-park-4/
p2396
aVhttp://www.traveltex.com/activities/woodward-ranch-4/
p2397
aVhttp://www.traveltex.com/activities/bayou-wildlife-zoo-4/
p2398
aVhttp://www.traveltex.com/activities/american-quarter-horse-hall-of-fame-and-museum-4/
p2399
aVhttp://www.traveltex.com/activities/helium-monument-4/
p2400
aVhttp://www.traveltex.com/activities/wallisville-heritage-park-5/
p2401
aVhttp://www.traveltex.com/activities/andrews-birding-center-4/
p2402
aVhttp://www.traveltex.com/activities/andrews-county-veterans-memorial-4/
p2403
aVhttp://www.traveltex.com/activities/ring-of-honor-4/
p2404
aVhttp://www.traveltex.com/activities/coastal-birding-trail-sites-8/
p2405
aVhttp://www.traveltex.com/activities/lake-kickapoo-1/
p2406
aVhttp://www.traveltex.com/activities/att-stadium-4/
p2407
aVhttp://www.traveltex.com/activities/arlington-museum-of-art-4/
p2408
aVhttp://www.traveltex.com/activities/lake-arlington-1/
p2409
aVhttp://www.traveltex.com/activities/levitt-pavilion-arlington-4/
p2410
aVhttp://www.traveltex.com/activities/planetarium-at-ut-arlington-the-4/
p2411
aVhttp://www.traveltex.com/activities/cedar-creek-reservoir-1/
p2412
aVhttp://www.traveltex.com/activities/lake-athens-1/
p2413
aVhttp://www.traveltex.com/activities/nytx-zipline-adventures-5/
p2414
aVhttp://www.traveltex.com/activities/bullock-texas-state-history-museum-the-story-of-texas-4/
p2415
aVhttp://www.traveltex.com/activities/circuit-of-the-americas-cota-4/
p2416
aVhttp://www.traveltex.com/activities/governors-mansion-4/
p2417
aVhttp://www.traveltex.com/activities/lady-bird-lake-1/
p2418
aVhttp://www.traveltex.com/activities/lake-austin-1/
p2419
aVhttp://www.traveltex.com/activities/lake-travis-1/
p2420
aVhttp://www.traveltex.com/activities/lake-walter-e-long-1/
p2421
aVhttp://www.traveltex.com/activities/the-thinkery-4/
p2422
aVhttp://www.traveltex.com/activities/oh-ivie-reservoir-1/
p2423
aVhttp://www.traveltex.com/activities/balmorhea-state-park-5/
p2424
aVhttp://www.traveltex.com/activities/lake-balmorhea-1/
p2425
aVhttp://www.traveltex.com/activities/american-legion-post-157-military-museum-4/
p2426
aVhttp://www.traveltex.com/activities/medina-lake-1/
p2427
aVhttp://www.traveltex.com/activities/lake-bastrop-1/
p2428
aVhttp://www.traveltex.com/activities/lock-drug-4/
p2429
aVhttp://www.traveltex.com/activities/bay-area-museum-4/
p2430
aVhttp://www.traveltex.com/activities/clear-lake-1/
p2431
aVhttp://www.traveltex.com/activities/seabrook-pelican-path-4/
p2432
aVhttp://www.traveltex.com/activities/beaches-4/
p2433
aVhttp://www.traveltex.com/activities/thompsons-fish-camp-4/
p2434
aVhttp://www.traveltex.com/activities/belton-lake-1/
p2435
aVhttp://www.traveltex.com/activities/stillhouse-hollow-lake-1/
p2436
aVhttp://www.traveltex.com/activities/lake-moss-creek-1/
p2437
aVhttp://www.traveltex.com/activities/lake-bonham-1/
p2438
aVhttp://www.traveltex.com/activities/lake-amon-g-carter-1/
p2439
aVhttp://www.traveltex.com/activities/brady-creek-reservoir-1/
p2440
aVhttp://www.traveltex.com/activities/the-train-museum-3/
p2441
aVhttp://www.traveltex.com/activities/hubbard-creek-reservoir-1/
p2442
aVhttp://www.traveltex.com/activities/lake-daniel-1/
p2443
aVhttp://www.traveltex.com/activities/bridge-city-historical-museumformer-prairie-view-teacherage-3/
p2444
aVhttp://www.traveltex.com/activities/lake-bridgeport-1/
p2445
aVhttp://www.traveltex.com/activities/brownsville-heritage-complexhome-of-the-stillman-house-museum-3/
p2446
aVhttp://www.traveltex.com/activities/sabal-palm-sanctuary-3/
p2447
aVhttp://www.traveltex.com/activities/lake-brownwood-1/
p2448
aVhttp://www.traveltex.com/activities/brazos-valley-african-american-museum-3/
p2449
aVhttp://www.traveltex.com/activities/gibbons-creek-reservoir-1/
p2450
aVhttp://www.traveltex.com/activities/inks-lake-1/
p2451
aVhttp://www.traveltex.com/activities/lake-buchanan-1/
p2452
aVhttp://www.traveltex.com/activities/historic-stagecoach-park-3/
p2453
aVhttp://www.traveltex.com/activities/possum-kingdom-lake-1/
p2454
aVhttp://www.traveltex.com/activities/lake-marvin-1/
p2455
aVhttp://www.traveltex.com/activities/yesterland-farm-3/
p2456
aVhttp://www.traveltex.com/activities/canyon-lake-1/
p2457
aVhttp://www.traveltex.com/activities/medina-lake-2/
p2458
aVhttp://www.traveltex.com/activities/lake-pinkston-1/
p2459
aVhttp://www.traveltex.com/activities/toledo-bend-reservoir-1/
p2460
aVhttp://www.traveltex.com/activities/lakes-childress-and-baylor-1/
p2461
aVhttp://www.traveltex.com/activities/lake-cisco-1/
p2462
aVhttp://www.traveltex.com/activities/greenbelt-lake-1/
p2463
aVhttp://www.traveltex.com/activities/lennox-woods-preserve-3/
p2464
aVhttp://www.traveltex.com/activities/lake-pat-cleburne-1/
p2465
aVhttp://www.traveltex.com/activities/hords-creek/
p2466
aVhttp://www.traveltex.com/activities/lake-coleman-1/
p2467
aVhttp://www.traveltex.com/activities/champion-creek-reservoir/
p2468
aVhttp://www.traveltex.com/activities/lake-colorado-city-1/
p2469
aVhttp://www.traveltex.com/activities/proctor-lake-1/
p2470
aVhttp://www.traveltex.com/activities/bedandbreakfasts-3/
p2471
aVhttp://www.traveltex.com/activities/hotel-faust-3/
p2472
aVhttp://www.traveltex.com/activities/nueces-treue-der-union-monument-4/
p2473
aVhttp://www.traveltex.com/activities/texas-am-universitycommerce-planetarium-4/
p2474
aVhttp://www.traveltex.com/activities/frio-bat-cave-3/
p2475
aVhttp://www.traveltex.com/activities/lake-conroe-1/
p2476
aVhttp://www.traveltex.com/activities/cooper-lake-1/
p2477
aVhttp://www.traveltex.com/activities/instituto-de-cultura-hispanica-3/
p2478
aVhttp://www.traveltex.com/activities/k-space-contemporary-3/
p2479
aVhttp://www.traveltex.com/activities/padre-balli-park-3/
p2480
aVhttp://www.traveltex.com/activities/richlandchambers-reservoir-1/
p2481
aVhttp://www.traveltex.com/activities/davy-crockett-national-forest-7/
p2482
aVhttp://www.traveltex.com/activities/houston-county-lake-1/
p2483
aVhttp://www.traveltex.com/activities/white-river-lake-1/
p2484
aVhttp://www.traveltex.com/activities/dallas-contemporary-museum-3/
p2485
aVhttp://www.traveltex.com/activities/dallas-heritage-village-at-old-city-park-3/
p2486
aVhttp://www.traveltex.com/activities/dallas-holocaust-museum-and-center-for-education-and-tolerance-3/
p2487
aVhttp://www.traveltex.com/activities/george-w-bush-presidential-library-and-museum-3/
p2488
aVhttp://www.traveltex.com/activities/lake-ray-hubbard-1/
p2489
aVhttp://www.traveltex.com/activities/mountain-creek-lake-1/
p2490
aVhttp://www.traveltex.com/activities/white-rock-lake-1/
p2491
aVhttp://www.traveltex.com/activities/proctor-lake-2/
p2492
aVhttp://www.traveltex.com/activities/amistad-international-reservoir-1/
p2493
aVhttp://www.traveltex.com/activities/lake-texoma-1/
p2494
aVhttp://www.traveltex.com/activities/center-for-visual-arts-3/
p2495
aVhttp://www.traveltex.com/activities/cactus-playa-lake-1/
p2496
aVhttp://www.traveltex.com/activities/international-museum-of-cultures-3/
p2497
aVhttp://www.traveltex.com/activities/kickapoo-lucky-eagle-casino-3/
p2498
aVhttp://www.traveltex.com/activities/leon-reservoir-1/
p2499
aVhttp://www.traveltex.com/activities/barrow-museum-4/
p2500
aVhttp://www.traveltex.com/activities/paint-rock-excursions-4/
p2501
aVhttp://www.traveltex.com/activities/lake-el-sal-del-rey-1/
p2502
aVhttp://www.traveltex.com/activities/lake-texana-1/
p2503
aVhttp://www.traveltex.com/activities/el-paso-exploreum-3/
p2504
aVhttp://www.traveltex.com/activities/mount-cristo-rey-3/
p2505
aVhttp://www.traveltex.com/activities/nuestra-seora-de-la-concepcin-del-socorro-3/
p2506
aVhttp://www.traveltex.com/activities/nuestra-seora-del-carmen-3/
p2507
aVhttp://www.traveltex.com/activities/san-elizario-historic-district-3/
p2508
aVhttp://www.traveltex.com/activities/the-elgin-depot-museum-3/
p2509
aVhttp://www.traveltex.com/activities/bardwell-lake-1/
p2510
aVhttp://www.traveltex.com/activities/fairfield-lake-1/
p2511
aVhttp://www.traveltex.com/activities/ea-arnim-archives-and-museum-3/
p2512
aVhttp://www.traveltex.com/activities/historic-innhotel-limpia-3/
p2513
aVhttp://www.traveltex.com/activities/annie-riggs-memorial-museum-3/
p2514
aVhttp://www.traveltex.com/activities/benbrook-lake-1/
p2515
aVhttp://www.traveltex.com/activities/eagle-mountain-reservoir-1/
p2516
aVhttp://www.traveltex.com/activities/lake-worth-1/
p2517
aVhttp://www.traveltex.com/activities/bedandbreakfast-3/
p2518
aVhttp://www.traveltex.com/activities/lake-meredith-1/
p2519
aVhttp://www.traveltex.com/activities/moss-lake-1/
p2520
aVhttp://www.traveltex.com/activities/artist-boat-3/
p2521
aVhttp://www.traveltex.com/activities/dash-beardsley-ghost-tours-3/
p2522
aVhttp://www.traveltex.com/activities/galveston-harbour-tours-3/
p2523
aVhttp://www.traveltex.com/activities/galveston-island-duck-tours-3/
p2524
aVhttp://www.traveltex.com/activities/galveston-island-historic-pleasure-pier-3/
p2525
aVhttp://www.traveltex.com/activities/galveston-tree-sculptures-3/
p2526
aVhttp://www.traveltex.com/activities/haunted-mayfield-manor-3/
p2527
aVhttp://www.traveltex.com/activities/historic-churches-3/
p2528
aVhttp://www.traveltex.com/activities/historic-homes-and-buildings-4/
p2529
aVhttp://www.traveltex.com/activities/pirates-legends-of-the-gulf-coast-3/
p2530
aVhttp://www.traveltex.com/activities/the-east-end-national-historic-landmark-district-and-the-silk-stocking-historic-district-3/
p2531
aVhttp://www.traveltex.com/activities/treasure-isle-tour-train-3/
p2532
aVhttp://www.traveltex.com/activities/brewery-35/
p2533
aVhttp://www.traveltex.com/activities/dime-box-museum-4/
p2534
aVhttp://www.traveltex.com/activities/the-wendish-museum-3/
p2535
aVhttp://www.traveltex.com/activities/ellison-creek-reservoir-lone-star-lake/
p2536
aVhttp://www.traveltex.com/activities/lake-gladewater-1/
p2537
aVhttp://www.traveltex.com/activities/squaw-creek-lake-1/
p2538
aVhttp://www.traveltex.com/activities/historic-homes-tours-3/
p2539
aVhttp://www.traveltex.com/activities/lake-wood-1/
p2540
aVhttp://www.traveltex.com/activities/paddling-trails-3/
p2541
aVhttp://www.traveltex.com/activities/fort-belknap-4/
p2542
aVhttp://www.traveltex.com/activities/lakes-graham-and-eddleman-1/
p2543
aVhttp://www.traveltex.com/activities/granbury-doll-house-museum-3/
p2544
aVhttp://www.traveltex.com/activities/granbury-state-historic-cemetery-3/
p2545
aVhttp://www.traveltex.com/activities/historic-granbury-square-3/
p2546
aVhttp://www.traveltex.com/activities/hood-county-jail-museum-3/
p2547
aVhttp://www.traveltex.com/activities/lake-granbury-1/
p2548
aVhttp://www.traveltex.com/activities/lake-joe-pool/
p2549
aVhttp://www.traveltex.com/activities/mountain-creek-lake-2/
p2550
aVhttp://www.traveltex.com/activities/grapevine-glockenspiel-3/
p2551
aVhttp://www.traveltex.com/activities/grapevine-lake-1/
p2552
aVhttp://www.traveltex.com/activities/grapevine-vintage-railroad-4/
p2553
aVhttp://www.traveltex.com/activities/lake-tawakoni-1/
p2554
aVhttp://www.traveltex.com/activities/lake-limestone-1/
p2555
aVhttp://www.traveltex.com/activities/patricia-huffman-smith-nasa-museum-remembering-columbia-4/
p2556
aVhttp://www.traveltex.com/activities/lake-striker-1/
p2557
aVhttp://www.traveltex.com/activities/murvaul-lake-1/
p2558
aVhttp://www.traveltex.com/activities/hidalgo-pumphouse-museum-world-birding-center-3/
p2559
aVhttp://www.traveltex.com/activities/aquilla-lake-1/
p2560
aVhttp://www.traveltex.com/activities/bayou-bend-collection-gardens-3/
p2561
aVhttp://www.traveltex.com/activities/contemporary-arts-museum-houston-3/
p2562
aVhttp://www.traveltex.com/activities/lake-houston-1/
p2563
aVhttp://www.traveltex.com/activities/wortham-giant-screen-theatre-3/
p2564
aVhttp://www.traveltex.com/activities/navarro-mills-lake-1/
p2565
aVhttp://www.traveltex.com/activities/humble-museum-3/
p2566
aVhttp://www.traveltex.com/activities/hippo-capital-3/
p2567
aVhttp://www.traveltex.com/activities/fort-richardson-state-park-and-historic-site-3/
p2568
aVhttp://www.traveltex.com/activities/lake-jacksboro-and-lost-creek-reservoir/
p2569
aVhttp://www.traveltex.com/activities/lost-creek-reservoir-state-trailway-3/
p2570
aVhttp://www.traveltex.com/activities/lake-jacksonville-1/
p2571
aVhttp://www.traveltex.com/activities/lake-palestine-1/
p2572
aVhttp://www.traveltex.com/activities/ba-steinhagen-lake/
p2573
aVhttp://www.traveltex.com/activities/sam-rayburn-reservoir-1/
p2574
aVhttp://www.traveltex.com/activities/caddo-lake-state-park-6/
p2575
aVhttp://www.traveltex.com/activities/excelsior-house-hotel-2/
p2576
aVhttp://www.traveltex.com/activities/lake-o-the-pines-1/
p2577
aVhttp://www.traveltex.com/activities/coming-king-sculpture-prayer-garden-3/
p2578
aVhttp://www.traveltex.com/activities/schreiner-mansion-3/
p2579
aVhttp://www.traveltex.com/activities/mayborn-science-and-space-theater-2/
p2580
aVhttp://www.traveltex.com/activities/stillhouse-hollow-lake-2/
p2581
aVhttp://www.traveltex.com/activities/the-3rd-cavalry-regiment-museum-2/
p2582
aVhttp://www.traveltex.com/activities/lake-lyndon-b-johnson-1/
p2583
aVhttp://www.traveltex.com/activities/museum-of-hardin-county-2/
p2584
aVhttp://www.traveltex.com/activities/central-texas-speedway-2/
p2585
aVhttp://www.traveltex.com/activities/faison-home-2/
p2586
aVhttp://www.traveltex.com/activities/jersey-barnyard-2/
p2587
aVhttp://www.traveltex.com/activities/lake-fayette-1/
p2588
aVhttp://www.traveltex.com/activities/monument-hill-and-kreische-brewery-state-historic-sites-2/
p2589
aVhttp://www.traveltex.com/activities/lake-travis-2/
p2590
aVhttp://www.traveltex.com/activities/scenic-overlook-near-langtry-2/
p2591
aVhttp://www.traveltex.com/activities/casa-blanca-lake-1/
p2592
aVhttp://www.traveltex.com/activities/lewisville-lake-1/
p2593
aVhttp://www.traveltex.com/activities/lake-livingston-1/
p2594
aVhttp://www.traveltex.com/activities/buffalo-springs/
p2595
aVhttp://www.traveltex.com/activities/lake-alan-henry-1/
p2596
aVhttp://www.traveltex.com/activities/naranjo-museum-of-natural-history-2/
p2597
aVhttp://www.traveltex.com/activities/scenic-drive-near-luling-2/
p2598
aVhttp://www.traveltex.com/activities/village-creek-state-park-3/
p2599
aVhttp://www.traveltex.com/activities/historic-inn-2/
p2600
aVhttp://www.traveltex.com/activities/big-league-dreams-sports-park-2/
p2601
aVhttp://www.traveltex.com/activities/hawaiian-falls-water-park-2/
p2602
aVhttp://www.traveltex.com/activities/historic-inngage-hotel-2/
p2603
aVhttp://www.traveltex.com/activities/lake-marble-falls-1/
p2604
aVhttp://www.traveltex.com/activities/brandy-branch-reservoir-1/
p2605
aVhttp://www.traveltex.com/activities/harrison-county-historical-museum-2/
p2606
aVhttp://www.traveltex.com/activities/lake-corpus-christi-1/
p2607
aVhttp://www.traveltex.com/activities/celebration-station-2/
p2608
aVhttp://www.traveltex.com/activities/lake-mexia-1/
p2609
aVhttp://www.traveltex.com/activities/caf-airpower-museum-2/
p2610
aVhttp://www.traveltex.com/activities/fredda-turner-durham-childrens-museum-2/
p2611
aVhttp://www.traveltex.com/activities/i20-wildlife-preserve-jenna-welch-nature-study-center-2/
p2612
aVhttp://www.traveltex.com/activities/marian-blakemore-planetarium-2/
p2613
aVhttp://www.traveltex.com/activities/permian-basin-petroleum-museum-chaparral-racecar-gallery-2/
p2614
aVhttp://www.traveltex.com/activities/sibley-nature-center-2/
p2615
aVhttp://www.traveltex.com/activities/lake-hawkins-1/
p2616
aVhttp://www.traveltex.com/activities/lake-holbrook-1/
p2617
aVhttp://www.traveltex.com/activities/lake-mineral-wells-1/
p2618
aVhttp://www.traveltex.com/activities/lake-mineral-wells-trailway-2/
p2619
aVhttp://www.traveltex.com/activities/lake-palo-pinto-1/
p2620
aVhttp://www.traveltex.com/activities/national-butterfly-center-2/
p2621
aVhttp://www.traveltex.com/activities/lake-bob-sandlin-1/
p2622
aVhttp://www.traveltex.com/activities/monticello-reservoir-1/
p2623
aVhttp://www.traveltex.com/activities/welsh-reservoir-1/
p2624
aVhttp://www.traveltex.com/activities/lake-cypress-springs-1/
p2625
aVhttp://www.traveltex.com/activities/historic-depot-complex-2/
p2626
aVhttp://www.traveltex.com/activities/texas-renaissance-festival-3/
p2627
aVhttp://www.traveltex.com/activities/collin-county-historical-society-2/
p2628
aVhttp://www.traveltex.com/activities/lake-lavon/
p2629
aVhttp://www.traveltex.com/activities/lake-naconiche/
p2630
aVhttp://www.traveltex.com/activities/lake-nocona-1/
p2631
aVhttp://www.traveltex.com/activities/ellen-nol-art-museum-of-the-permian-basin-1/
p2632
aVhttp://www.traveltex.com/activities/the-historic-whitepool-house-1/
p2633
aVhttp://www.traveltex.com/activities/crockett-county-interpretive-trail-1/
p2634
aVhttp://www.traveltex.com/activities/historic-innluther-hotel-1/
p2635
aVhttp://www.traveltex.com/activities/anderson-county-courthouse-1/
p2636
aVhttp://www.traveltex.com/activities/palestine-main-street-district-1/
p2637
aVhttp://www.traveltex.com/activities/lake-mcclellan-1/
p2638
aVhttp://www.traveltex.com/activities/mobeetie-jail-museum-2/
p2639
aVhttp://www.traveltex.com/activities/the-cross-of-our-lord-jesus-christ-2/
p2640
aVhttp://www.traveltex.com/activities/eiffel-tower-replica-1/
p2641
aVhttp://www.traveltex.com/activities/lake-crook-1/
p2642
aVhttp://www.traveltex.com/activities/pat-mayse-lake-1/
p2643
aVhttp://www.traveltex.com/activities/historic-sites-2/
p2644
aVhttp://www.traveltex.com/activities/lake-fryer-1/
p2645
aVhttp://www.traveltex.com/activities/isle-du-bois-unit-1/
p2646
aVhttp://www.traveltex.com/activities/johnson-branch-unit-1/
p2647
aVhttp://www.traveltex.com/activities/jordan-park-1/
p2648
aVhttp://www.traveltex.com/activities/lake-ray-roberts/
p2649
aVhttp://www.traveltex.com/activities/ray-roberts-greenbelt-corridor-1/
p2650
aVhttp://www.traveltex.com/activities/sanger-marina-unit-1/
p2651
aVhttp://www.traveltex.com/activities/farley-boat-works-1/
p2652
aVhttp://www.traveltex.com/activities/historic-innthe-tarpon-inn-1/
p2653
aVhttp://www.traveltex.com/activities/the-joan-scott-holt-paradise-pond-1/
p2654
aVhttp://www.traveltex.com/activities/wildlife-viewing-sites-1/
p2655
aVhttp://www.traveltex.com/activities/sabine-lake-1/
p2656
aVhttp://www.traveltex.com/activities/historic-innqueen-isabel-inn-1/
p2657
aVhttp://www.traveltex.com/activities/port-isabel-historic-museum-1/
p2658
aVhttp://www.traveltex.com/activities/indianola-1/
p2659
aVhttp://www.traveltex.com/activities/centennial-plaza-1/
p2660
aVhttp://www.traveltex.com/activities/downtown-medicine-mound-museum-1/
p2661
aVhttp://www.traveltex.com/activities/lake-fork-1/
p2662
aVhttp://www.traveltex.com/activities/lake-quitman-2/
p2663
aVhttp://www.traveltex.com/activities/the-governor-hogg-park-arboretum-and-botanical-gardens-1/
p2664
aVhttp://www.traveltex.com/activities/historic-innla-borde-house-1/
p2665
aVhttp://www.traveltex.com/activities/ev-spence-reservoir-1/
p2666
aVhttp://www.traveltex.com/activities/birding-1/
p2667
aVhttp://www.traveltex.com/activities/copano-bay-fishing-pier-1/
p2668
aVhttp://www.traveltex.com/activities/fulton-schoolhouse-museum-1/
p2669
aVhttp://www.traveltex.com/activities/rockport-beach-1/
p2670
aVhttp://www.traveltex.com/activities/lake-ray-hubbard-2/
p2671
aVhttp://www.traveltex.com/activities/roma-bluffs-world-birding-center-1/
p2672
aVhttp://www.traveltex.com/activities/roma-historic-district-1/
p2673
aVhttp://www.traveltex.com/activities/round-top-festival-institute-1/
p2674
aVhttp://www.traveltex.com/activities/adrenaline-rush-zipline-1/
p2675
aVhttp://www.traveltex.com/activities/stonewall-saloon-museum-1/
p2676
aVhttp://www.traveltex.com/activities/tablerock-amphitheater-1/
p2677
aVhttp://www.traveltex.com/activities/lake-nasworthy-1/
p2678
aVhttp://www.traveltex.com/activities/sherwood-courthouse-2/
p2679
aVhttp://www.traveltex.com/activities/twin-buttes-reservoir-1/
p2680
aVhttp://www.traveltex.com/activities/alamo-cenotaph-2/
p2681
aVhttp://www.traveltex.com/activities/guinness-world-records-museum-ripleys-haunted-adventure-and-tomb-rider-3d-1/
p2682
aVhttp://www.traveltex.com/activities/lake-braunig-1/
p2683
aVhttp://www.traveltex.com/activities/lake-calaveras-1/
p2684
aVhttp://www.traveltex.com/activities/san-antonio-fire-museum-1/
p2685
aVhttp://www.traveltex.com/activities/the-amazing-mirror-maze-and-the-vault-laser-challenge-1/
p2686
aVhttp://www.traveltex.com/activities/mission-seora-de-los-dolores-de-los-ais-1/
p2687
aVhttp://www.traveltex.com/activities/the-meadows-center-1/
p2688
aVhttp://www.traveltex.com/activities/fiedler-memorial-museum-1/
p2689
aVhttp://www.traveltex.com/activities/jackson-auditorium-1/
p2690
aVhttp://www.traveltex.com/activities/schuech-fine-arts-center-1/
p2691
aVhttp://www.traveltex.com/activities/millers-creek-reservoir/
p2692
aVhttp://www.traveltex.com/activities/lake-mackenzie-1/
p2693
aVhttp://www.traveltex.com/activities/james-h-long-railroad-park-and-museum-1/
p2694
aVhttp://www.traveltex.com/activities/smithville-veterans-memorial-and-splash-park-1/
p2695
aVhttp://www.traveltex.com/activities/lake-jb-thomas-1/
p2696
aVhttp://www.traveltex.com/activities/birch-creek-1/
p2697
aVhttp://www.traveltex.com/activities/nails-creek-1/
p2698
aVhttp://www.traveltex.com/activities/somerville-lake-1/
p2699
aVhttp://www.traveltex.com/activities/breakaway-cruises-1/
p2700
aVhttp://www.traveltex.com/activities/isla-tours-south-padre-and-captain-murphys-fishing-charters-1/
p2701
aVhttp://www.traveltex.com/activities/schlitterbahn-beach-resort-1/
p2702
aVhttp://www.traveltex.com/activities/the-original-dolphin-watch-1/
p2703
aVhttp://www.traveltex.com/activities/tours-2/
p2704
aVhttp://www.traveltex.com/activities/university-of-texaspan-american-coastal-studies-laboratory-2/
p2705
aVhttp://www.traveltex.com/activities/lake-stamford-1/
p2706
aVhttp://www.traveltex.com/activities/the-sauerbeckman-living-history-farm-1/
p2707
aVhttp://www.traveltex.com/activities/artists-alliance-of-sugar-land-1/
p2708
aVhttp://www.traveltex.com/activities/techno-chaos-1/
p2709
aVhttp://www.traveltex.com/activities/lake-sulphur-springs-1/
p2710
aVhttp://www.traveltex.com/activities/lake-sweetwater-1/
p2711
aVhttp://www.traveltex.com/activities/oak-creek-reservoir-1/
p2712
aVhttp://www.traveltex.com/activities/odonnell-museum-3/
p2713
aVhttp://www.traveltex.com/activities/martin-creek-lake-1/
p2714
aVhttp://www.traveltex.com/activities/historic-homes-6/
p2715
aVhttp://www.traveltex.com/activities/patrick-j-ahern-house-1/
p2716
aVhttp://www.traveltex.com/activities/wright-patman-lake-1/
p2717
aVhttp://www.traveltex.com/activities/choke-canyon-reservoir-1/
p2718
aVhttp://www.traveltex.com/activities/davinci-artists-gallery-1/
p2719
aVhttp://www.traveltex.com/activities/historic-tomball-depot-and-museum-1/
p2720
aVhttp://www.traveltex.com/activities/tomball-museum-center-1/
p2721
aVhttp://www.traveltex.com/activities/lakes-tyler-and-tyler-east-1/
p2722
aVhttp://www.traveltex.com/activities/caddo-lake-1/
p2723
aVhttp://www.traveltex.com/activities/graceful-ghost-steamboat-company-inc-1/
p2724
aVhttp://www.traveltex.com/activities/paddlewheel-tours-2/
p2725
aVhttp://www.traveltex.com/activities/clark-hotel-historical-museum-1/
p2726
aVhttp://www.traveltex.com/activities/coleto-creek-reservoir-1/
p2727
aVhttp://www.traveltex.com/activities/bsr-cable-park-1/
p2728
aVhttp://www.traveltex.com/activities/lake-brazos-1/
p2729
aVhttp://www.traveltex.com/activities/lake-waco/
p2730
aVhttp://www.traveltex.com/activities/nicholas-p-sims-library-2/
p2731
aVhttp://www.traveltex.com/activities/lake-waxahachie-1/
p2732
aVhttp://www.traveltex.com/activities/weatherford-lake-1/
p2733
aVhttp://www.traveltex.com/activities/east-columbia-main-street-national-historic-district-1/
p2734
aVhttp://www.traveltex.com/activities/historic-buildings-2/
p2735
aVhttp://www.traveltex.com/activities/old-columbia-cemetery-1/
p2736
aVhttp://www.traveltex.com/activities/rosenwald-schools-1/
p2737
aVhttp://www.traveltex.com/activities/the-ammon-underwood-home-1/
p2738
aVhttp://www.traveltex.com/activities/the-capitol-of-texas-parka-walk-through-the-birth-of-texas-1/
p2739
aVhttp://www.traveltex.com/activities/the-replica-of-the-first-capitol-1/
p2740
aVhttp://www.traveltex.com/activities/the-sweenywaddy-cabin-1/
p2741
aVhttp://www.traveltex.com/activities/20th-century-technology-museum-1/
p2742
aVhttp://www.traveltex.com/activities/lake-whitney/
p2743
aVhttp://www.traveltex.com/activities/lake-arrowhead-2/
p2744
aVhttp://www.traveltex.com/activities/lake-kemp-2/
p2745
aVhttp://www.traveltex.com/activities/wichita-falls-museum-of-art-at-midwestern-state-university-1/
p2746
aVhttp://www.traveltex.com/activities/old-caboose-1/
p2747
aVhttp://www.traveltex.com/activities/veterans-memorial-park-3/
p2748
aVhttp://www.traveltex.com/activities/lake-winnsboro-1/
p2749
aVhttp://www.traveltex.com/activities/falcon-reservoir-1/
p2750
aVhttp://www.traveltex.com/activities/baird-texas-and-pacific-depot-visitor-center-and-transportation-museum-5/
p2751
aVhttp://www.traveltex.com/activities/railroad-depot-museum-and-visitor-center-1/
p2752
aVhttp://www.traveltex.com/activities/wynne-home-art-visitor-center-1/
p2753
aVhttp://www.traveltex.com/activities/barton-warnock-visitor-center-1/
p2754
aVhttp://www.traveltex.com/activities/judge-roy-bean-visitor-center-1/
p2755
aVhttp://www.traveltex.com/activities/bankhead-highway-visitor-center-1/
p2756
aVhttp://www.traveltex.com/activities/roanoke-visitor-center-and-museum-1/
p2757
aVhttp://www.traveltex.com/activities/blue-bell-creameries-4/
p2758
aVhttp://www.traveltex.com/activities/bureau-of-engraving-and-printingwestern-currency-facility-4/
p2759
aVhttp://www.traveltex.com/activities/anahuac-national-wildlife-refuge-1/
p2760
aVhttp://www.traveltex.com/activities/bastrop-state-park-1/
p2761
aVhttp://www.traveltex.com/activities/pirates-bay-water-park-3/
p2762
aVhttp://www.traveltex.com/activities/battle-of-adobe-walls-3/
p2763
aVhttp://www.traveltex.com/activities/pioneer-park-1/
p2764
aVhttp://www.traveltex.com/activities/museum-of-western-art-1/
p2765
aVhttp://www.traveltex.com/activities/texas-state-railroad-2/
p2766
aVhttp://www.traveltex.com/activities/scenic-drive-near-panhandle-1/
p2767
aVhttp://www.traveltex.com/activities/west-of-the-pecos-museum-and-park-1/
p2768
aVhttp://www.traveltex.com/activities/texas-state-railroad-3/
p2769
aVhttp://www.traveltex.com/activities/cooper-lake-state-park-3/
p2770
aVhttp://www.traveltex.com/activities/texas-state-cemetery-1/
p2771
aVhttp://www.traveltex.com/activities/danish-heritage-preservation-society-1/
p2772
aVhttp://www.traveltex.com/activities/east-texas-arboretum-botanical-society-1/
p2773
aVhttp://www.traveltex.com/activities/baytown-nature-center-1/
p2774
aVhttp://www.traveltex.com/activities/big-bend-lajitas-stables-1/
p2775
aVhttp://www.traveltex.com/activities/hallies-hall-of-fame-museum-1/
p2776
aVhttp://www.traveltex.com/activities/rio-grande-float-trips-1/
p2777
aVhttp://www.traveltex.com/activities/study-butte-1/
p2778
aVhttp://www.traveltex.com/activities/terlingua-1/
p2779
aVhttp://www.traveltex.com/activities/bronco-raceway/
p2780
aVhttp://www.traveltex.com/activities/cleveland-historical-museum/
p2781
aVhttp://www.traveltex.com/activities/the-lone-star-monument-and-historic-flag-park/
p2782
aVhttp://www.traveltex.com/activities/lake-fayette-2/
p2783
aVhttp://www.traveltex.com/activities/ifly/
p2784
aVhttp://www.traveltex.com/activities/hawaiian-falls-waterpark-2/
p2785
aVhttp://www.traveltex.com/activities/historic-walking-tour-1/
p2786
aVhttp://www.traveltex.com/activities/sterling-theatre/
p2787
aVhttp://www.traveltex.com/activities/grand-prairie-premium-outlets/
p2788
aVhttp://www.traveltex.com/activities/susies-south-forty-candy-factory/
p2789
aVhttp://www.traveltex.com/activities/franconia-brewing-company/
p2790
aVhttp://www.traveltex.com/activities/heard-natural-science-museum-and-wildlife-sanctuary-1/
p2791
aVhttp://www.traveltex.com/activities/buu-mon-buddhist-temple-and-lotus-gardens/
p2792
aVhttp://www.traveltex.com/activities/briscoe-western-art-museum/
p2793
aVhttp://www.traveltex.com/activities/riverside-park/
p2794
aVhttp://www.traveltex.com/activities/victoria-art-league-building/
p2795
aVhttp://www.traveltex.com/activities/the-bella-vista-ranch-1/
p2796
aVhttp://www.traveltex.com/activities/grayson-hills-winery-1/
p2797
aVhttp://www.traveltex.com/activities/tehuacana-creek-vineyards-and-winery-1/
p2798
aVhttp://www.traveltex.com/activities/triple-r-ranch-and-winery/
p2799
aVhttp://www.traveltex.com/activities/valley-mills-vineyards/
p2800
aVhttp://www.traveltex.com/activities/the-weimary/
p2801
aVhttp://www.traveltex.com/activities/balcones-distilling/
p2802
aVhttp://www.traveltex.com/activities/dew-distillation-llc/
p2803
aVhttp://www.traveltex.com/activities/davy-crockett-spring-and-brewer-park-1/
p2804
aVhttp://www.traveltex.com/activities/kreische-brewery-state-historic-site-1/
p2805
aVhttp://www.traveltex.com/activities/albany-visitor-center-4/
p2806
a.